Monday, September 01, 16:19:08, 2008

                    Sunplus u'nSP Linker version 1.14.3 (enc)
                    -------------------------------------------

Global Symbol Name                             Global Value     Global Filename
***********************************************************************************************************************************************************************************************************************************************************************************************************
_RESET                                             A679         "D:\Program Files\Sunplus\unSP IDE 2.0.0\startupD.obj"
__sn_loop                                          A695         "D:\Program Files\Sunplus\unSP IDE 2.0.0\startupD.obj"
__sn_loop2                                         A694         "D:\Program Files\Sunplus\unSP IDE 2.0.0\startupD.obj"
__sn_init_table                                    8000         "Linker internal symbol"
__sn_sp_val                                        7FF          "Linker internal symbol"
_InitIO                                            B77F         "F:\abc\shibieyuyin5\Debug\InitIO.obj"
_ShowRes                                           B777         "F:\abc\shibieyuyin5\Debug\InitIO.obj"
_ClearWatchDog                                     B771         "F:\abc\shibieyuyin5\Debug\InitIO.obj"
F_SP_RampUpDAC1                                    B6B8         "F:\abc\shibieyuyin5\Debug\hardware.obj"
F_SP_RampDnDAC1                                    B6DC         "F:\abc\shibieyuyin5\Debug\hardware.obj"
F_SP_RampUpDAC2                                    B6EE         "F:\abc\shibieyuyin5\Debug\hardware.obj"
F_SP_RampDnDAC2                                    B712         "F:\abc\shibieyuyin5\Debug\hardware.obj"
_SP_RampUpDAC1                                     B6B8         "F:\abc\shibieyuyin5\Debug\hardware.obj"
_SP_RampDnDAC1                                     B6DC         "F:\abc\shibieyuyin5\Debug\hardware.obj"
_SP_RampUpDAC2                                     B6EE         "F:\abc\shibieyuyin5\Debug\hardware.obj"
_SP_RampDnDAC2                                     B712         "F:\abc\shibieyuyin5\Debug\hardware.obj"
_SP_InitQueue                                      B592         "F:\abc\shibieyuyin5\Debug\hardware.obj"
_SP_InitQueue_A2000                                B592         "F:\abc\shibieyuyin5\Debug\hardware.obj"
_SP_InitQueue_S480                                 B592         "F:\abc\shibieyuyin5\Debug\hardware.obj"
_SP_InitQueue_S240                                 B592         "F:\abc\shibieyuyin5\Debug\hardware.obj"
_SP_InitQueue_MS01                                 B592         "F:\abc\shibieyuyin5\Debug\hardware.obj"
_SP_InitQueue_DVR                                  B592         "F:\abc\shibieyuyin5\Debug\hardware.obj"
F_SP_InitQueue                                     B592         "F:\abc\shibieyuyin5\Debug\hardware.obj"
F_SP_InitQueue_A2000                               B592         "F:\abc\shibieyuyin5\Debug\hardware.obj"
F_SP_InitQueue_S480                                B592         "F:\abc\shibieyuyin5\Debug\hardware.obj"
F_SP_InitQueue_S240                                B592         "F:\abc\shibieyuyin5\Debug\hardware.obj"
F_SP_InitQueue_MS01                                B592         "F:\abc\shibieyuyin5\Debug\hardware.obj"
F_SP_InitQueue_DVR                                 B592         "F:\abc\shibieyuyin5\Debug\hardware.obj"
F_SP_ReadQueue                                     B59F         "F:\abc\shibieyuyin5\Debug\hardware.obj"
F_SP_ReadQueue_A2000                               B59F         "F:\abc\shibieyuyin5\Debug\hardware.obj"
F_SP_ReadQueue_S480                                B59F         "F:\abc\shibieyuyin5\Debug\hardware.obj"
F_SP_ReadQueue_S240                                B59F         "F:\abc\shibieyuyin5\Debug\hardware.obj"
F_SP_ReadQueue_MS01                                B59F         "F:\abc\shibieyuyin5\Debug\hardware.obj"
F_SP_ReadQueue_DVR                                 B59F         "F:\abc\shibieyuyin5\Debug\hardware.obj"
F_SP_ReadQueue_NIC                                 B5B2         "F:\abc\shibieyuyin5\Debug\hardware.obj"
F_SP_ReadQueue_NIC_A2000                           B5B2         "F:\abc\shibieyuyin5\Debug\hardware.obj"
F_SP_ReadQueue_NIC_S480                            B5B2         "F:\abc\shibieyuyin5\Debug\hardware.obj"
F_SP_ReadQueue_NIC_S240                            B5B2         "F:\abc\shibieyuyin5\Debug\hardware.obj"
F_SP_ReadQueue_NIC_MS01                            B5B2         "F:\abc\shibieyuyin5\Debug\hardware.obj"
F_SP_ReadQueue_NIC_DVR                             B5B2         "F:\abc\shibieyuyin5\Debug\hardware.obj"
F_SP_WriteQueue                                    B5BB         "F:\abc\shibieyuyin5\Debug\hardware.obj"
F_SP_WriteQueue_A2000                              B5BB         "F:\abc\shibieyuyin5\Debug\hardware.obj"
F_SP_WriteQueue_S480                               B5BB         "F:\abc\shibieyuyin5\Debug\hardware.obj"
F_SP_WriteQueue_S240                               B5BB         "F:\abc\shibieyuyin5\Debug\hardware.obj"
F_SP_WriteQueue_MS01                               B5BB         "F:\abc\shibieyuyin5\Debug\hardware.obj"
F_SP_WriteQueue_DVR                                B5BB         "F:\abc\shibieyuyin5\Debug\hardware.obj"
F_SP_TestQueue                                     B5CA         "F:\abc\shibieyuyin5\Debug\hardware.obj"
F_SP_TestQueue_A2000                               B5CA         "F:\abc\shibieyuyin5\Debug\hardware.obj"
F_SP_TestQueue_S480                                B5CA         "F:\abc\shibieyuyin5\Debug\hardware.obj"
F_SP_TestQueue_S240                                B5CA         "F:\abc\shibieyuyin5\Debug\hardware.obj"
F_SP_TestQueue_MS01                                B5CA         "F:\abc\shibieyuyin5\Debug\hardware.obj"
F_SP_TestQueue_DVR                                 B5CA         "F:\abc\shibieyuyin5\Debug\hardware.obj"
_SP_Export                                         B751         "F:\abc\shibieyuyin5\Debug\hardware.obj"
_SP_Import                                         B74A         "F:\abc\shibieyuyin5\Debug\hardware.obj"
_SP_Init_IOB                                       B73A         "F:\abc\shibieyuyin5\Debug\hardware.obj"
_SP_Init_IOA                                       B72A         "F:\abc\shibieyuyin5\Debug\hardware.obj"
_SP_GetResource                                    B75B         "F:\abc\shibieyuyin5\Debug\hardware.obj"
F_SP_GetResource                                   B769         "F:\abc\shibieyuyin5\Debug\hardware.obj"
F_SP_SACM_A2000_Init_                              B5E3         "F:\abc\shibieyuyin5\Debug\hardware.obj"
F_SP_SACM_S480_Init_                               B5FF         "F:\abc\shibieyuyin5\Debug\hardware.obj"
F_SP_SACM_S240_Init_                               B61A         "F:\abc\shibieyuyin5\Debug\hardware.obj"
F_SP_SACM_MS01_Init_                               B635         "F:\abc\shibieyuyin5\Debug\hardware.obj"
F_SP_PlayMode0_                                    B647         "F:\abc\shibieyuyin5\Debug\hardware.obj"
F_SP_PlayMode1_                                    B657         "F:\abc\shibieyuyin5\Debug\hardware.obj"
F_SP_PlayMode2_                                    B668         "F:\abc\shibieyuyin5\Debug\hardware.obj"
F_SP_PlayMode3_                                    B679         "F:\abc\shibieyuyin5\Debug\hardware.obj"
F_SP_SACM_DVR_Init_                                B68A         "F:\abc\shibieyuyin5\Debug\hardware.obj"
F_SP_SACM_DVR_Rec_Init_                            B6A8         "F:\abc\shibieyuyin5\Debug\hardware.obj"
F_SP_SACM_DVR_Play_Init_                           B6B0         "F:\abc\shibieyuyin5\Debug\hardware.obj"
R_InterruptStatus                                  489          "F:\abc\shibieyuyin5\Debug\hardware.obj"
F_RampUpDAC1                                       B6B8         "F:\abc\shibieyuyin5\Debug\hardware.obj"
F_RampDnDAC1                                       B6DC         "F:\abc\shibieyuyin5\Debug\hardware.obj"
F_RampUpDAC2                                       B6EE         "F:\abc\shibieyuyin5\Debug\hardware.obj"
F_RampDnDAC2                                       B712         "F:\abc\shibieyuyin5\Debug\hardware.obj"
_STD_RampUpDAC1                                    B6B8         "F:\abc\shibieyuyin5\Debug\hardware.obj"
_STD_RampDnDAC1                                    B6DC         "F:\abc\shibieyuyin5\Debug\hardware.obj"
_STD_RampUpDAC2                                    B6EE         "F:\abc\shibieyuyin5\Debug\hardware.obj"
_STD_RampDnDAC2                                    B712         "F:\abc\shibieyuyin5\Debug\hardware.obj"
_FIQ                                               A653         "F:\abc\shibieyuyin5\Debug\FIQ.obj"
_BREAK                                             A673         "F:\abc\shibieyuyin5\Debug\FIQ.obj"
_IRQ0                                              A673         "F:\abc\shibieyuyin5\Debug\FIQ.obj"
_IRQ1                                              A673         "F:\abc\shibieyuyin5\Debug\FIQ.obj"
_IRQ2                                              A673         "F:\abc\shibieyuyin5\Debug\FIQ.obj"
_IRQ3                                              A673         "F:\abc\shibieyuyin5\Debug\FIQ.obj"
_IRQ4                                              A673         "F:\abc\shibieyuyin5\Debug\FIQ.obj"
_IRQ5                                              A673         "F:\abc\shibieyuyin5\Debug\FIQ.obj"
_IRQ6                                              A673         "F:\abc\shibieyuyin5\Debug\FIQ.obj"
_IRQ7                                              A673         "F:\abc\shibieyuyin5\Debug\FIQ.obj"
T_SACM_S480_SpeechTable                            A643         "F:\abc\shibieyuyin5\Debug\FIQ.obj"
T_SACM_A2000_SpeechTable                           A652         "F:\abc\shibieyuyin5\Debug\FIQ.obj"
_RES_Table                                         A607         "F:\abc\shibieyuyin5\Debug\Resource.obj"
_RES_S12_24K_SA                                    A607         "F:\abc\shibieyuyin5\Debug\Resource.obj"
_RES_S12_24K_EA                                    A609         "F:\abc\shibieyuyin5\Debug\Resource.obj"
_RES_1_48K_SA                                      A60B         "F:\abc\shibieyuyin5\Debug\Resource.obj"
_RES_1_48K_EA                                      A60D         "F:\abc\shibieyuyin5\Debug\Resource.obj"
_RES_2_48K_SA                                      A60F         "F:\abc\shibieyuyin5\Debug\Resource.obj"
_RES_2_48K_EA                                      A611         "F:\abc\shibieyuyin5\Debug\Resource.obj"
_RES_3_48K_SA                                      A613         "F:\abc\shibieyuyin5\Debug\Resource.obj"
_RES_3_48K_EA                                      A615         "F:\abc\shibieyuyin5\Debug\Resource.obj"
_RES_4_48K_SA                                      A617         "F:\abc\shibieyuyin5\Debug\Resource.obj"
_RES_4_48K_EA                                      A619         "F:\abc\shibieyuyin5\Debug\Resource.obj"
_RES_5_48K_SA                                      A61B         "F:\abc\shibieyuyin5\Debug\Resource.obj"
_RES_5_48K_EA                                      A61D         "F:\abc\shibieyuyin5\Debug\Resource.obj"
_RES_6_48K_SA                                      A61F         "F:\abc\shibieyuyin5\Debug\Resource.obj"
_RES_6_48K_EA                                      A621         "F:\abc\shibieyuyin5\Debug\Resource.obj"
_RES_7_48K_SA                                      A623         "F:\abc\shibieyuyin5\Debug\Resource.obj"
_RES_7_48K_EA                                      A625         "F:\abc\shibieyuyin5\Debug\Resource.obj"
_RES_18_48K_SA                                     A627         "F:\abc\shibieyuyin5\Debug\Resource.obj"
_RES_18_48K_EA                                     A629         "F:\abc\shibieyuyin5\Debug\Resource.obj"
_RES_10_48K_SA                                     A62B         "F:\abc\shibieyuyin5\Debug\Resource.obj"
_RES_10_48K_EA                                     A62D         "F:\abc\shibieyuyin5\Debug\Resource.obj"
_RES_11_48K_SA                                     A62F         "F:\abc\shibieyuyin5\Debug\Resource.obj"
_RES_11_48K_EA                                     A631         "F:\abc\shibieyuyin5\Debug\Resource.obj"
_RES_12_48K_SA                                     A633         "F:\abc\shibieyuyin5\Debug\Resource.obj"
_RES_12_48K_EA                                     A635         "F:\abc\shibieyuyin5\Debug\Resource.obj"
_RES_17_48K_SA                                     A637         "F:\abc\shibieyuyin5\Debug\Resource.obj"
_RES_17_48K_EA                                     A639         "F:\abc\shibieyuyin5\Debug\Resource.obj"
_RES_16_48K_SA                                     A63B         "F:\abc\shibieyuyin5\Debug\Resource.obj"
_RES_16_48K_EA                                     A63D         "F:\abc\shibieyuyin5\Debug\Resource.obj"
_RES_15_48K_SA                                     A63F         "F:\abc\shibieyuyin5\Debug\Resource.obj"
_RES_15_48K_EA                                     A641         "F:\abc\shibieyuyin5\Debug\Resource.obj"
_gActivated                                        4F0          "F:\abc\shibieyuyin5\Debug\main.obj"
_gTriggerRespond                                   4F1          "F:\abc\shibieyuyin5\Debug\main.obj"
_gComm2Respond                                     4F4          "F:\abc\shibieyuyin5\Debug\main.obj"
_PlayFlag                                          4F7          "F:\abc\shibieyuyin5\Debug\main.obj"
_PlayRespond2                                      B394         "F:\abc\shibieyuyin5\Debug\main.obj"
_PlayRespond                                       B3C8         "F:\abc\shibieyuyin5\Debug\main.obj"
_TrainWord                                         B3FC         "F:\abc\shibieyuyin5\Debug\main.obj"
_main                                              B46A         "F:\abc\shibieyuyin5\Debug\main.obj"
__RES_S12_24K_sa                                   B813         "F:\abc\shibieyuyin5\Debug\S12_24K.res"
__RES_S12_24K_ea                                   BE8E         "F:\abc\shibieyuyin5\Debug\S12_24K.res"
__RES_1_48K_sa                                     D77E         "F:\abc\shibieyuyin5\Debug\1_48k.res"
__RES_1_48K_ea                                     DB55         "F:\abc\shibieyuyin5\Debug\1_48k.res"
__RES_2_48K_sa                                     BE8E         "F:\abc\shibieyuyin5\Debug\2_48k.res"
__RES_2_48K_ea                                     C2D1         "F:\abc\shibieyuyin5\Debug\2_48k.res"
__RES_3_48K_sa                                     D383         "F:\abc\shibieyuyin5\Debug\3_48k.res"
__RES_3_48K_ea                                     D77E         "F:\abc\shibieyuyin5\Debug\3_48k.res"
__RES_4_48K_sa                                     DB55         "F:\abc\shibieyuyin5\Debug\4_48k.res"
__RES_4_48K_ea                                     DF2C         "F:\abc\shibieyuyin5\Debug\4_48k.res"
__RES_5_48K_sa                                     C714         "F:\abc\shibieyuyin5\Debug\5_48k.res"
__RES_5_48K_ea                                     CB45         "F:\abc\shibieyuyin5\Debug\5_48k.res"
__RES_6_48K_sa                                     CF64         "F:\abc\shibieyuyin5\Debug\6_48k.res"
__RES_6_48K_ea                                     D383         "F:\abc\shibieyuyin5\Debug\6_48k.res"
__RES_7_48K_sa                                     CB45         "F:\abc\shibieyuyin5\Debug\7_48k.res"
__RES_7_48K_ea                                     CF64         "F:\abc\shibieyuyin5\Debug\7_48k.res"
__RES_18_48K_sa                                    C2D1         "F:\abc\shibieyuyin5\Debug\18_48k.res"
__RES_18_48K_ea                                    C714         "F:\abc\shibieyuyin5\Debug\18_48k.res"
__RES_10_48K_sa                                    EF2C         "F:\abc\shibieyuyin5\Debug\10_48k.res"
__RES_10_48K_ea                                    F210         "F:\abc\shibieyuyin5\Debug\10_48k.res"
__RES_11_48K_sa                                    E92E         "F:\abc\shibieyuyin5\Debug\11_48k.res"
__RES_11_48K_ea                                    EC36         "F:\abc\shibieyuyin5\Debug\11_48k.res"
__RES_12_48K_sa                                    EC36         "F:\abc\shibieyuyin5\Debug\12_48k.res"
__RES_12_48K_ea                                    EF2C         "F:\abc\shibieyuyin5\Debug\12_48k.res"
__RES_17_48K_sa                                    E614         "F:\abc\shibieyuyin5\Debug\17_48k.res"
__RES_17_48K_ea                                    E92E         "F:\abc\shibieyuyin5\Debug\17_48k.res"
__RES_16_48K_sa                                    DF2C         "F:\abc\shibieyuyin5\Debug\16_48k.res"
__RES_16_48K_ea                                    E2DF         "F:\abc\shibieyuyin5\Debug\16_48k.res"
__RES_15_48K_sa                                    E2DF         "F:\abc\shibieyuyin5\Debug\15_48k.res"
__RES_15_48K_ea                                    E614         "F:\abc\shibieyuyin5\Debug\15_48k.res"
***********************************************************************************************************************************************************************************************************************************************************************************************************

***********************************************************************************************************************************************************************************************************************************************************************************************************
*                             S E C T I O N     S U M M A R Y                                                                                                                                                                                                                                             *
***********************************************************************************************************************************************************************************************************************************************************************************************************
*     Section Name                             Startting Address   Ending Address    Size                                                                                                                                                                                                                 *
***********************************************************************************************************************************************************************************************************************************************************************************************************
* "D:\Program Files\Sunplus\unSP IDE 2.0.0\startupD.obj"                                                                                                                                                                                                                                                  *
*    DEBUG                                         ----                 ----         ----                                                                                                                                                                                                                 *
*    CODE                                          ----                 ----         ----                                                                                                                                                                                                                 *
*    DATA                                          ----                 ----         ----                                                                                                                                                                                                                 *
*    TEXT                                          ----                 ----         ----                                                                                                                                                                                                                 *
*    IRAM                                          ----                 ----         ----                                                                                                                                                                                                                 *
*    ISRAM                                         ----                 ----         ----                                                                                                                                                                                                                 *
*    RAM                                           ----                 ----         ----                                                                                                                                                                                                                 *
*    SRAM                                          ----                 ----         ----                                                                                                                                                                                                                 *
*    ORAM                                          ----                 ----         ----                                                                                                                                                                                                                 *
*    OSRAM                                         ----                 ----         ----                                                                                                                                                                                                                 *
*    NB_DATA                                       ----                 ----         ----                                                                                                                                                                                                                 *
*    CTOR                                          ----                 ----         ----                                                                                                                                                                                                                 *
*    DTOR                                          ----                 ----         ----                                                                                                                                                                                                                 *
*    IM                                            ----                 ----         ----                                                                                                                                                                                                                 *
*    LINKONCE                                      ----                 ----         ----                                                                                                                                                                                                                 *
*    VTBL                                          ----                 ----         ----                                                                                                                                                                                                                 *
*    NB_MERGE                                      ----                 ----         ----                                                                                                                                                                                                                 *
*    unSP_StartUp(TEXT)                            A679                 A695         1D                                                                                                                                                                                                                   *
* "F:\abc\shibieyuyin5\Debug\InitIO.obj"                                                                                                                                                                                                                                                                  *
*    DEBUG                                         ----                 ----         ----                                                                                                                                                                                                                 *
*    CODE                                          B771                 B792         22                                                                                                                                                                                                                   *
*    DATA                                          ----                 ----         ----                                                                                                                                                                                                                 *
*    TEXT                                          ----                 ----         ----                                                                                                                                                                                                                 *
*    IRAM                                          ----                 ----         ----                                                                                                                                                                                                                 *
*    ISRAM                                         ----                 ----         ----                                                                                                                                                                                                                 *
*    RAM                                           ----                 ----         ----                                                                                                                                                                                                                 *
*    SRAM                                          ----                 ----         ----                                                                                                                                                                                                                 *
*    ORAM                                          ----                 ----         ----                                                                                                                                                                                                                 *
*    OSRAM                                         ----                 ----         ----                                                                                                                                                                                                                 *
*    NB_DATA                                       ----                 ----         ----                                                                                                                                                                                                                 *
*    CTOR                                          ----                 ----         ----                                                                                                                                                                                                                 *
*    DTOR                                          ----                 ----         ----                                                                                                                                                                                                                 *
*    IM                                            ----                 ----         ----                                                                                                                                                                                                                 *
*    LINKONCE                                      ----                 ----         ----                                                                                                                                                                                                                 *
*    VTBL                                          ----                 ----         ----                                                                                                                                                                                                                 *
*    NB_MERGE                                      ----                 ----         ----                                                                                                                                                                                                                 *
* "F:\abc\shibieyuyin5\Debug\hardware.obj"                                                                                                                                                                                                                                                                *
*    DEBUG                                         ----                 ----         ----                                                                                                                                                                                                                 *
*    CODE                                          B592                 B770         1DF                                                                                                                                                                                                                  *
*    DATA                                          ----                 ----         ----                                                                                                                                                                                                                 *
*    TEXT                                          ----                 ----         ----                                                                                                                                                                                                                 *
*    IRAM                                          B79F  (489)          B805  (4EF)  67                                                                                                                                                                                                                   *
*    ISRAM                                         ----                 ----         ----                                                                                                                                                                                                                 *
*    RAM                                           ----                 ----         ----                                                                                                                                                                                                                 *
*    SRAM                                          ----                 ----         ----                                                                                                                                                                                                                 *
*    ORAM                                          ----                 ----         ----                                                                                                                                                                                                                 *
*    OSRAM                                         ----                 ----         ----                                                                                                                                                                                                                 *
*    NB_DATA                                       ----                 ----         ----                                                                                                                                                                                                                 *
*    CTOR                                          ----                 ----         ----                                                                                                                                                                                                                 *
*    DTOR                                          ----                 ----         ----                                                                                                                                                                                                                 *
*    IM                                            ----                 ----         ----                                                                                                                                                                                                                 *
*    LINKONCE                                      ----                 ----         ----                                                                                                                                                                                                                 *
*    VTBL                                          ----                 ----         ----                                                                                                                                                                                                                 *
*    NB_MERGE                                      ----                 ----         ----                                                                                                                                                                                                                 *
* "F:\abc\shibieyuyin5\Debug\FIQ.obj"                                                                                                                                                                                                                                                                     *
*    DEBUG                                         ----                 ----         ----                                                                                                                                                                                                                 *
*    CODE                                          ----                 ----         ----                                                                                                                                                                                                                 *
*    DATA                                          ----                 ----         ----                                                                                                                                                                                                                 *
*    TEXT                                          A643                 A672         30                                                                                                                                                                                                                   *
*    IRAM                                          ----                 ----         ----                                                                                                                                                                                                                 *
*    ISRAM                                         ----                 ----         ----                                                                                                                                                                                                                 *
*    RAM                                           ----                 ----         ----                                                                                                                                                                                                                 *
*    SRAM                                          ----                 ----         ----                                                                                                                                                                                                                 *
*    ORAM                                          ----                 ----         ----                                                                                                                                                                                                                 *
*    OSRAM                                         ----                 ----         ----                                                                                                                                                                                                                 *
*    NB_DATA                                       ----                 ----         ----                                                                                                                                                                                                                 *
*    CTOR                                          ----                 ----         ----                                                                                                                                                                                                                 *
*    DTOR                                          ----                 ----         ----                                                                                                                                                                                                                 *
*    IM                                            ----                 ----         ----                                                                                                                                                                                                                 *
*    LINKONCE                                      ----                 ----         ----                                                                                                                                                                                                                 *
*    VTBL                                          ----                 ----         ----                                                                                                                                                                                                                 *
*    NB_MERGE                                      ----                 ----         ----                                                                                                                                                                                                                 *
* "F:\abc\shibieyuyin5\Debug\Resource.obj"                                                                                                                                                                                                                                                                *
*    DEBUG                                         ----                 ----         ----                                                                                                                                                                                                                 *
*    CODE                                          ----                 ----         ----                                                                                                                                                                                                                 *
*    DATA                                          ----                 ----         ----                                                                                                                                                                                                                 *
*    TEXT                                          A607                 A642         3C                                                                                                                                                                                                                   *
*    IRAM                                          ----                 ----         ----                                                                                                                                                                                                                 *
*    ISRAM                                         ----                 ----         ----                                                                                                                                                                                                                 *
*    RAM                                           ----                 ----         ----                                                                                                                                                                                                                 *
*    SRAM                                          ----                 ----         ----                                                                                                                                                                                                                 *
*    ORAM                                          ----                 ----         ----                                                                                                                                                                                                                 *
*    OSRAM                                         ----                 ----         ----                                                                                                                                                                                                                 *
*    NB_DATA                                       ----                 ----         ----                                                                                                                                                                                                                 *
*    CTOR                                          ----                 ----         ----                                                                                                                                                                                                                 *
*    DTOR                                          ----                 ----         ----                                                                                                                                                                                                                 *
*    IM                                            ----                 ----         ----                                                                                                                                                                                                                 *
*    LINKONCE                                      ----                 ----         ----                                                                                                                                                                                                                 *
*    VTBL                                          ----                 ----         ----                                                                                                                                                                                                                 *
*    NB_MERGE                                      ----                 ----         ----                                                                                                                                                                                                                 *
* "F:\abc\shibieyuyin5\Debug\main.obj"                                                                                                                                                                                                                                                                    *
*    DEBUG                                         ----                 ----         ----                                                                                                                                                                                                                 *
*    CODE                                          B394                 B591         1FE                                                                                                                                                                                                                  *
*    DATA                                          ----                 ----         ----                                                                                                                                                                                                                 *
*    TEXT                                          A673                 A678         6                                                                                                                                                                                                                    *
*    IRAM                                          B806  (4F0)          B80D  (4F7)  8                                                                                                                                                                                                                    *
*    ISRAM                                         ----                 ----         ----                                                                                                                                                                                                                 *
*    RAM                                           ----                 ----         ----                                                                                                                                                                                                                 *
*    SRAM                                          ----                 ----         ----                                                                                                                                                                                                                 *
*    ORAM                                          ----                 ----         ----                                                                                                                                                                                                                 *
*    OSRAM                                         ----                 ----         ----                                                                                                                                                                                                                 *
*    NB_DATA                                       ----                 ----         ----                                                                                                                                                                                                                 *
*    CTOR                                          ----                 ----         ----                                                                                                                                                                                                                 *
*    DTOR                                          ----                 ----         ----                                                                                                                                                                                                                 *
*    IM                                            ----                 ----         ----                                                                                                                                                                                                                 *
*    LINKONCE                                      ----                 ----         ----                                                                                                                                                                                                                 *
*    VTBL                                          ----                 ----         ----                                                                                                                                                                                                                 *
*    NB_MERGE                                      ----                 ----         ----                                                                                                                                                                                                                 *
* "F:\abc\shibieyuyin5\Debug\S12_24K.res"                                                                                                                                                                                                                                                                 *
*    __sn_section_RES_S12_24K(DATA)                B813                 BE8D         67B                                                                                                                                                                                                                  *
* "F:\abc\shibieyuyin5\Debug\1_48k.res"                                                                                                                                                                                                                                                                   *
*    __sn_section_RES_1_48K(DATA)                  D77E                 DB54         3D7                                                                                                                                                                                                                  *
* "F:\abc\shibieyuyin5\Debug\2_48k.res"                                                                                                                                                                                                                                                                   *
*    __sn_section_RES_2_48K(DATA)                  BE8E                 C2D0         443                                                                                                                                                                                                                  *
* "F:\abc\shibieyuyin5\Debug\3_48k.res"                                                                                                                                                                                                                                                                   *
*    __sn_section_RES_3_48K(DATA)                  D383                 D77D         3FB                                                                                                                                                                                                                  *
* "F:\abc\shibieyuyin5\Debug\4_48k.res"                                                                                                                                                                                                                                                                   *
*    __sn_section_RES_4_48K(DATA)                  DB55                 DF2B         3D7                                                                                                                                                                                                                  *
* "F:\abc\shibieyuyin5\Debug\5_48k.res"                                                                                                                                                                                                                                                                   *
*    __sn_section_RES_5_48K(DATA)                  C714                 CB44         431                                                                                                                                                                                                                  *
* "F:\abc\shibieyuyin5\Debug\6_48k.res"                                                                                                                                                                                                                                                                   *
*    __sn_section_RES_6_48K(DATA)                  CF64                 D382         41F                                                                                                                                                                                                                  *
* "F:\abc\shibieyuyin5\Debug\7_48k.res"                                                                                                                                                                                                                                                                   *
*    __sn_section_RES_7_48K(DATA)                  CB45                 CF63         41F                                                                                                                                                                                                                  *
* "F:\abc\shibieyuyin5\Debug\18_48k.res"                                                                                                                                                                                                                                                                  *
*    __sn_section_RES_18_48K(DATA)                 C2D1                 C713         443                                                                                                                                                                                                                  *
* "F:\abc\shibieyuyin5\Debug\10_48k.res"                                                                                                                                                                                                                                                                  *
*    __sn_section_RES_10_48K(DATA)                 EF2C                 F20F         2E4                                                                                                                                                                                                                  *
* "F:\abc\shibieyuyin5\Debug\11_48k.res"                                                                                                                                                                                                                                                                  *
*    __sn_section_RES_11_48K(DATA)                 E92E                 EC35         308                                                                                                                                                                                                                  *
* "F:\abc\shibieyuyin5\Debug\12_48k.res"                                                                                                                                                                                                                                                                  *
*    __sn_section_RES_12_48K(DATA)                 EC36                 EF2B         2F6                                                                                                                                                                                                                  *
* "F:\abc\shibieyuyin5\Debug\17_48k.res"                                                                                                                                                                                                                                                                  *
*    __sn_section_RES_17_48K(DATA)                 E614                 E92D         31A                                                                                                                                                                                                                  *
* "F:\abc\shibieyuyin5\Debug\16_48k.res"                                                                                                                                                                                                                                                                  *
*    __sn_section_RES_16_48K(DATA)                 DF2C                 E2DE         3B3                                                                                                                                                                                                                  *
* "F:\abc\shibieyuyin5\Debug\15_48k.res"                                                                                                                                                                                                                                                                  *
*    __sn_section_RES_15_48K(DATA)                 E2DF                 E613         335                                                                                                                                                                                                                  *
* "BSRSDCON"                                                                                                                                                                                                                                                                                              *
*    DEBUG                                         ----                 ----         ----                                                                                                                                                                                                                 *
*    CODE                                          ----                 ----         ----                                                                                                                                                                                                                 *
*    DATA                                          ----                 ----         ----                                                                                                                                                                                                                 *
*    TEXT                                          8009                 9C65         1C5D                                                                                                                                                                                                                 *
*    IRAM                                          ----                 ----         ----                                                                                                                                                                                                                 *
*    ISRAM                                         ----                 ----         ----                                                                                                                                                                                                                 *
*    RAM                                           ----                 ----         ----                                                                                                                                                                                                                 *
*    SRAM                                          ----                 ----         ----                                                                                                                                                                                                                 *
*    ORAM                                          ----                 ----         ----                                                                                                                                                                                                                 *
*    OSRAM                                         ----                 ----         ----                                                                                                                                                                                                                 *
*    NB_DATA                                       ----                 ----         ----                                                                                                                                                                                                                 *
*    BSR_IRAM_EXCLUSIVE(IRAM)                      B793  (47D)          B79E  (488)  C                                                                                                                                                                                                                    *
*    BSR_RAM_EXCLUSIVE(RAM)                        467                  47C          16                                                                                                                                                                                                                   *
*    BSR_RAM_BLOCK(RAM)                            39D                  466          CA                                                                                                                                                                                                                   *
*    OVERLAP_RAM_BLOCK(ORAM)                       1                    361          361                                                                                                                                                                                                                  *
* "D:\WORKING\UNSP\LIBMAK~1\RELEASE\S480"                                                                                                                                                                                                                                                                 *
*    DEBUG                                         ----                 ----         ----                                                                                                                                                                                                                 *
*    CODE                                          A696                 AD9E         709                                                                                                                                                                                                                  *
*    DATA                                          ----                 ----         ----                                                                                                                                                                                                                 *
*    TEXT                                          A316                 A606         2F1                                                                                                                                                                                                                  *
*    IRAM                                          B811  (4FB)          B812  (4FC)  2                                                                                                                                                                                                                    *
*    ISRAM                                         ----                 ----         ----                                                                                                                                                                                                                 *
*    RAM                                           ----                 ----         ----                                                                                                                                                                                                                 *
*    SRAM                                          ----                 ----         ----                                                                                                                                                                                                                 *
*    ORAM                                          ----                 ----         ----                                                                                                                                                                                                                 *
*    OSRAM                                         ----                 ----         ----                                                                                                                                                                                                                 *
*    NB_DATA                                       ----                 ----         ----                                                                                                                                                                                                                 *
*    OVERLAP_RAM_BLOCK(ORAM)                       1                    1A3          1A3                                                                                                                                                                                                                  *
* "D:\WORKING\UNSP\LIBMAK~1\RELEASE\A2000"                                                                                                                                                                                                                                                                *
*    DEBUG                                         ----                 ----         ----                                                                                                                                                                                                                 *
*    CODE                                          AD9F                 B393         5F5                                                                                                                                                                                                                  *
*    DATA                                          ----                 ----         ----                                                                                                                                                                                                                 *
*    TEXT                                          9C66                 A315         6B0                                                                                                                                                                                                                  *
*    IRAM                                          B80E  (4F8)          B810  (4FA)  3                                                                                                                                                                                                                    *
*    ISRAM                                         ----                 ----         ----                                                                                                                                                                                                                 *
*    RAM                                           ----                 ----         ----                                                                                                                                                                                                                 *
*    SRAM                                          ----                 ----         ----                                                                                                                                                                                                                 *
*    ORAM                                          ----                 ----         ----                                                                                                                                                                                                                 *
*    OSRAM                                         ----                 ----         ----                                                                                                                                                                                                                 *
*    NB_DATA                                       ----                 ----         ----                                                                                                                                                                                                                 *
*    OVERLAP_SRAM_BLOCK(ORAM)                      362                  39C          3B                                                                                                                                                                                                                   *
*    OVERLAP_RAM_BLOCK(ORAM)                       1                    2B9          2B9                                                                                                                                                                                                                  *
* "Init Table"                                     8000                 8008         9                                                                                                                                                                                                                    *
***********************************************************************************************************************************************************************************************************************************************************************************************************

***********************************************************************************************************************************************************************************************************************************************************************************************************
*                             M E M O R Y     S U M M A R Y                                                                                                                                                                                                                                               *
***********************************************************************************************************************************************************************************************************************************************************************************************************
*     Type                          Total               Using        Remain                                                                                                                                                                                                                               *
***********************************************************************************************************************************************************************************************************************************************************************************************************
* "SRam/OSRam/ISRam"                40                   0            40                                                                                                                                                                                                                                  *
* "Ram"                             800                  4FD          303                                                                                                                                                                                                                                 *
* "First Bank Rom"                  7C00                 7210         9F0                                                                                                                                                                                                                                 *
* "Other Banks Rom"                 0                    0            0                                                                                                                                                                                                                                   *
***********************************************************************************************************************************************************************************************************************************************************************************************************

Linker Output Filename : F:\abc\shibieyuyin5\Debug\Guard_SD.S37
Disk  Mapping Filename : F:\abc\shibieyuyin5\Debug\Guard_SD.map
Symbol  Table FileName : F:\abc\shibieyuyin5\Debug\Guard_SD.sym
Format :                 Microtek

Linker Errors :          0
Output Format :          S37
