Saturday, October 03, 14:29:56, 2009

                    Sunplus u'nSP Linker version 1.14.3 (enc)
                    -------------------------------------------

Global Symbol Name                             Global Value     Global Filename
***********************************************************************************************************************************************************************************************************************************************************************************************************
_RESET                                             8029         "C:\PROGRA~1\Sunplus\UNSPID~1.0\startupD.obj"
__sn_loop                                          8045         "C:\PROGRA~1\Sunplus\UNSPID~1.0\startupD.obj"
__sn_loop2                                         8044         "C:\PROGRA~1\Sunplus\UNSPID~1.0\startupD.obj"
__sn_init_table                                    8000         "Linker internal symbol"
__sn_sp_val                                        7FF          "Linker internal symbol"
_RES_Table                                         8024         "E:\AllProject\sunplus\mysound\Debug\Resource.obj"
_RES_2_16K_SA                                      8024         "E:\AllProject\sunplus\mysound\Debug\Resource.obj"
_RES_2_16K_EA                                      8026         "E:\AllProject\sunplus\mysound\Debug\Resource.obj"
T_SACM_A2000_SpeechTable                           8028         "E:\AllProject\sunplus\mysound\Debug\Resource.obj"
_playsound                                         8EC8         "E:\AllProject\sunplus\mysound\Debug\123.obj"
_main                                              8EF9         "E:\AllProject\sunplus\mysound\Debug\123.obj"
F_SP_RampUpDAC1                                    8E10         "E:\AllProject\sunplus\mysound\Debug\hardware.obj"
F_SP_RampDnDAC1                                    8E34         "E:\AllProject\sunplus\mysound\Debug\hardware.obj"
F_SP_RampUpDAC2                                    8E46         "E:\AllProject\sunplus\mysound\Debug\hardware.obj"
F_SP_RampDnDAC2                                    8E6A         "E:\AllProject\sunplus\mysound\Debug\hardware.obj"
_SP_RampUpDAC1                                     8E10         "E:\AllProject\sunplus\mysound\Debug\hardware.obj"
_SP_RampDnDAC1                                     8E34         "E:\AllProject\sunplus\mysound\Debug\hardware.obj"
_SP_RampUpDAC2                                     8E46         "E:\AllProject\sunplus\mysound\Debug\hardware.obj"
_SP_RampDnDAC2                                     8E6A         "E:\AllProject\sunplus\mysound\Debug\hardware.obj"
_SP_InitQueue                                      8CEB         "E:\AllProject\sunplus\mysound\Debug\hardware.obj"
_SP_InitQueue_A2000                                8CEB         "E:\AllProject\sunplus\mysound\Debug\hardware.obj"
_SP_InitQueue_S480                                 8CEB         "E:\AllProject\sunplus\mysound\Debug\hardware.obj"
_SP_InitQueue_S240                                 8CEB         "E:\AllProject\sunplus\mysound\Debug\hardware.obj"
_SP_InitQueue_MS01                                 8CEB         "E:\AllProject\sunplus\mysound\Debug\hardware.obj"
_SP_InitQueue_DVR                                  8CEB         "E:\AllProject\sunplus\mysound\Debug\hardware.obj"
F_SP_InitQueue                                     8CEB         "E:\AllProject\sunplus\mysound\Debug\hardware.obj"
F_SP_InitQueue_A2000                               8CEB         "E:\AllProject\sunplus\mysound\Debug\hardware.obj"
F_SP_InitQueue_S480                                8CEB         "E:\AllProject\sunplus\mysound\Debug\hardware.obj"
F_SP_InitQueue_S240                                8CEB         "E:\AllProject\sunplus\mysound\Debug\hardware.obj"
F_SP_InitQueue_MS01                                8CEB         "E:\AllProject\sunplus\mysound\Debug\hardware.obj"
F_SP_InitQueue_DVR                                 8CEB         "E:\AllProject\sunplus\mysound\Debug\hardware.obj"
F_SP_ReadQueue                                     8CF8         "E:\AllProject\sunplus\mysound\Debug\hardware.obj"
F_SP_ReadQueue_A2000                               8CF8         "E:\AllProject\sunplus\mysound\Debug\hardware.obj"
F_SP_ReadQueue_S480                                8CF8         "E:\AllProject\sunplus\mysound\Debug\hardware.obj"
F_SP_ReadQueue_S240                                8CF8         "E:\AllProject\sunplus\mysound\Debug\hardware.obj"
F_SP_ReadQueue_MS01                                8CF8         "E:\AllProject\sunplus\mysound\Debug\hardware.obj"
F_SP_ReadQueue_DVR                                 8CF8         "E:\AllProject\sunplus\mysound\Debug\hardware.obj"
F_SP_ReadQueue_NIC                                 8D0B         "E:\AllProject\sunplus\mysound\Debug\hardware.obj"
F_SP_ReadQueue_NIC_A2000                           8D0B         "E:\AllProject\sunplus\mysound\Debug\hardware.obj"
F_SP_ReadQueue_NIC_S480                            8D0B         "E:\AllProject\sunplus\mysound\Debug\hardware.obj"
F_SP_ReadQueue_NIC_S240                            8D0B         "E:\AllProject\sunplus\mysound\Debug\hardware.obj"
F_SP_ReadQueue_NIC_MS01                            8D0B         "E:\AllProject\sunplus\mysound\Debug\hardware.obj"
F_SP_ReadQueue_NIC_DVR                             8D0B         "E:\AllProject\sunplus\mysound\Debug\hardware.obj"
F_SP_WriteQueue                                    8D14         "E:\AllProject\sunplus\mysound\Debug\hardware.obj"
F_SP_WriteQueue_A2000                              8D14         "E:\AllProject\sunplus\mysound\Debug\hardware.obj"
F_SP_WriteQueue_S480                               8D14         "E:\AllProject\sunplus\mysound\Debug\hardware.obj"
F_SP_WriteQueue_S240                               8D14         "E:\AllProject\sunplus\mysound\Debug\hardware.obj"
F_SP_WriteQueue_MS01                               8D14         "E:\AllProject\sunplus\mysound\Debug\hardware.obj"
F_SP_WriteQueue_DVR                                8D14         "E:\AllProject\sunplus\mysound\Debug\hardware.obj"
F_SP_TestQueue                                     8D23         "E:\AllProject\sunplus\mysound\Debug\hardware.obj"
F_SP_TestQueue_A2000                               8D23         "E:\AllProject\sunplus\mysound\Debug\hardware.obj"
F_SP_TestQueue_S480                                8D23         "E:\AllProject\sunplus\mysound\Debug\hardware.obj"
F_SP_TestQueue_S240                                8D23         "E:\AllProject\sunplus\mysound\Debug\hardware.obj"
F_SP_TestQueue_MS01                                8D23         "E:\AllProject\sunplus\mysound\Debug\hardware.obj"
F_SP_TestQueue_DVR                                 8D23         "E:\AllProject\sunplus\mysound\Debug\hardware.obj"
_SP_Export                                         8EA9         "E:\AllProject\sunplus\mysound\Debug\hardware.obj"
_SP_Import                                         8EA2         "E:\AllProject\sunplus\mysound\Debug\hardware.obj"
_SP_Init_IOB                                       8E92         "E:\AllProject\sunplus\mysound\Debug\hardware.obj"
_SP_Init_IOA                                       8E82         "E:\AllProject\sunplus\mysound\Debug\hardware.obj"
_SP_GetResource                                    8EB2         "E:\AllProject\sunplus\mysound\Debug\hardware.obj"
F_SP_GetResource                                   8EC0         "E:\AllProject\sunplus\mysound\Debug\hardware.obj"
F_SP_SACM_A2000_Init_                              8D3C         "E:\AllProject\sunplus\mysound\Debug\hardware.obj"
F_SP_SACM_S480_Init_                               8D58         "E:\AllProject\sunplus\mysound\Debug\hardware.obj"
F_SP_SACM_S240_Init_                               8D73         "E:\AllProject\sunplus\mysound\Debug\hardware.obj"
F_SP_SACM_MS01_Init_                               8D8E         "E:\AllProject\sunplus\mysound\Debug\hardware.obj"
F_SP_PlayMode0_                                    8DA0         "E:\AllProject\sunplus\mysound\Debug\hardware.obj"
F_SP_PlayMode1_                                    8DB0         "E:\AllProject\sunplus\mysound\Debug\hardware.obj"
F_SP_PlayMode2_                                    8DC1         "E:\AllProject\sunplus\mysound\Debug\hardware.obj"
F_SP_PlayMode3_                                    8DD2         "E:\AllProject\sunplus\mysound\Debug\hardware.obj"
F_SP_SACM_DVR_Init_                                8DE3         "E:\AllProject\sunplus\mysound\Debug\hardware.obj"
F_SP_SACM_DVR_Rec_Init_                            8E00         "E:\AllProject\sunplus\mysound\Debug\hardware.obj"
F_SP_SACM_DVR_Play_Init_                           8E08         "E:\AllProject\sunplus\mysound\Debug\hardware.obj"
R_InterruptStatus                                  2F5          "E:\AllProject\sunplus\mysound\Debug\hardware.obj"
F_RampUpDAC1                                       8E10         "E:\AllProject\sunplus\mysound\Debug\hardware.obj"
F_RampDnDAC1                                       8E34         "E:\AllProject\sunplus\mysound\Debug\hardware.obj"
F_RampUpDAC2                                       8E46         "E:\AllProject\sunplus\mysound\Debug\hardware.obj"
F_RampDnDAC2                                       8E6A         "E:\AllProject\sunplus\mysound\Debug\hardware.obj"
_STD_RampUpDAC1                                    8E10         "E:\AllProject\sunplus\mysound\Debug\hardware.obj"
_STD_RampDnDAC1                                    8E34         "E:\AllProject\sunplus\mysound\Debug\hardware.obj"
_STD_RampUpDAC2                                    8E46         "E:\AllProject\sunplus\mysound\Debug\hardware.obj"
_STD_RampDnDAC2                                    8E6A         "E:\AllProject\sunplus\mysound\Debug\hardware.obj"
_FIQ                                               8009         "E:\AllProject\sunplus\mysound\Debug\isr.obj"
__RES_2_16K_sa                                     8FD0         "E:\AllProject\sunplus\mysound\Debug\2_16k.res"
__RES_2_16K_ea                                     E2B3         "E:\AllProject\sunplus\mysound\Debug\2_16k.res"
***********************************************************************************************************************************************************************************************************************************************************************************************************

***********************************************************************************************************************************************************************************************************************************************************************************************************
*                             S E C T I O N     S U M M A R Y                                                                                                                                                                                                                                             *
***********************************************************************************************************************************************************************************************************************************************************************************************************
*     Section Name                             Startting Address   Ending Address    Size                                                                                                                                                                                                                 *
***********************************************************************************************************************************************************************************************************************************************************************************************************
* "C:\PROGRA~1\Sunplus\UNSPID~1.0\startupD.obj"                                                                                                                                                                                                                                                           *
*    DEBUG                                         ----                 ----         ----                                                                                                                                                                                                                 *
*    CODE                                          ----                 ----         ----                                                                                                                                                                                                                 *
*    DATA                                          ----                 ----         ----                                                                                                                                                                                                                 *
*    TEXT                                          ----                 ----         ----                                                                                                                                                                                                                 *
*    IRAM                                          ----                 ----         ----                                                                                                                                                                                                                 *
*    ISRAM                                         ----                 ----         ----                                                                                                                                                                                                                 *
*    RAM                                           ----                 ----         ----                                                                                                                                                                                                                 *
*    SRAM                                          ----                 ----         ----                                                                                                                                                                                                                 *
*    ORAM                                          ----                 ----         ----                                                                                                                                                                                                                 *
*    OSRAM                                         ----                 ----         ----                                                                                                                                                                                                                 *
*    NB_DATA                                       ----                 ----         ----                                                                                                                                                                                                                 *
*    CTOR                                          ----                 ----         ----                                                                                                                                                                                                                 *
*    DTOR                                          ----                 ----         ----                                                                                                                                                                                                                 *
*    IM                                            ----                 ----         ----                                                                                                                                                                                                                 *
*    LINKONCE                                      ----                 ----         ----                                                                                                                                                                                                                 *
*    VTBL                                          ----                 ----         ----                                                                                                                                                                                                                 *
*    NB_MERGE                                      ----                 ----         ----                                                                                                                                                                                                                 *
*    unSP_StartUp(TEXT)                            8029                 8045         1D                                                                                                                                                                                                                   *
* "E:\AllProject\sunplus\mysound\Debug\Resource.obj"                                                                                                                                                                                                                                                      *
*    DEBUG                                         ----                 ----         ----                                                                                                                                                                                                                 *
*    CODE                                          ----                 ----         ----                                                                                                                                                                                                                 *
*    DATA                                          ----                 ----         ----                                                                                                                                                                                                                 *
*    TEXT                                          8024                 8028         5                                                                                                                                                                                                                    *
*    IRAM                                          ----                 ----         ----                                                                                                                                                                                                                 *
*    ISRAM                                         ----                 ----         ----                                                                                                                                                                                                                 *
*    RAM                                           ----                 ----         ----                                                                                                                                                                                                                 *
*    SRAM                                          ----                 ----         ----                                                                                                                                                                                                                 *
*    ORAM                                          ----                 ----         ----                                                                                                                                                                                                                 *
*    OSRAM                                         ----                 ----         ----                                                                                                                                                                                                                 *
*    NB_DATA                                       ----                 ----         ----                                                                                                                                                                                                                 *
*    CTOR                                          ----                 ----         ----                                                                                                                                                                                                                 *
*    DTOR                                          ----                 ----         ----                                                                                                                                                                                                                 *
*    IM                                            ----                 ----         ----                                                                                                                                                                                                                 *
*    LINKONCE                                      ----                 ----         ----                                                                                                                                                                                                                 *
*    VTBL                                          ----                 ----         ----                                                                                                                                                                                                                 *
*    NB_MERGE                                      ----                 ----         ----                                                                                                                                                                                                                 *
* "E:\AllProject\sunplus\mysound\Debug\123.obj"                                                                                                                                                                                                                                                           *
*    DEBUG                                         ----                 ----         ----                                                                                                                                                                                                                 *
*    CODE                                          8EC8                 8F39         72                                                                                                                                                                                                                   *
*    DATA                                          ----                 ----         ----                                                                                                                                                                                                                 *
*    TEXT                                          ----                 ----         ----                                                                                                                                                                                                                 *
*    IRAM                                          ----                 ----         ----                                                                                                                                                                                                                 *
*    ISRAM                                         ----                 ----         ----                                                                                                                                                                                                                 *
*    RAM                                           ----                 ----         ----                                                                                                                                                                                                                 *
*    SRAM                                          ----                 ----         ----                                                                                                                                                                                                                 *
*    ORAM                                          ----                 ----         ----                                                                                                                                                                                                                 *
*    OSRAM                                         ----                 ----         ----                                                                                                                                                                                                                 *
*    NB_DATA                                       ----                 ----         ----                                                                                                                                                                                                                 *
*    CTOR                                          ----                 ----         ----                                                                                                                                                                                                                 *
*    DTOR                                          ----                 ----         ----                                                                                                                                                                                                                 *
*    IM                                            ----                 ----         ----                                                                                                                                                                                                                 *
*    LINKONCE                                      ----                 ----         ----                                                                                                                                                                                                                 *
*    VTBL                                          ----                 ----         ----                                                                                                                                                                                                                 *
*    NB_MERGE                                      ----                 ----         ----                                                                                                                                                                                                                 *
* "E:\AllProject\sunplus\mysound\Debug\hardware.obj"                                                                                                                                                                                                                                                      *
*    DEBUG                                         ----                 ----         ----                                                                                                                                                                                                                 *
*    CODE                                          8CEB                 8EC7         1DD                                                                                                                                                                                                                  *
*    DATA                                          ----                 ----         ----                                                                                                                                                                                                                 *
*    TEXT                                          ----                 ----         ----                                                                                                                                                                                                                 *
*    IRAM                                          8F3A  (2F5)          8FCC  (387)  93                                                                                                                                                                                                                   *
*    ISRAM                                         ----                 ----         ----                                                                                                                                                                                                                 *
*    RAM                                           ----                 ----         ----                                                                                                                                                                                                                 *
*    SRAM                                          ----                 ----         ----                                                                                                                                                                                                                 *
*    ORAM                                          ----                 ----         ----                                                                                                                                                                                                                 *
*    OSRAM                                         ----                 ----         ----                                                                                                                                                                                                                 *
*    NB_DATA                                       ----                 ----         ----                                                                                                                                                                                                                 *
*    CTOR                                          ----                 ----         ----                                                                                                                                                                                                                 *
*    DTOR                                          ----                 ----         ----                                                                                                                                                                                                                 *
*    IM                                            ----                 ----         ----                                                                                                                                                                                                                 *
*    LINKONCE                                      ----                 ----         ----                                                                                                                                                                                                                 *
*    VTBL                                          ----                 ----         ----                                                                                                                                                                                                                 *
*    NB_MERGE                                      ----                 ----         ----                                                                                                                                                                                                                 *
* "E:\AllProject\sunplus\mysound\Debug\isr.obj"                                                                                                                                                                                                                                                           *
*    DEBUG                                         ----                 ----         ----                                                                                                                                                                                                                 *
*    CODE                                          ----                 ----         ----                                                                                                                                                                                                                 *
*    DATA                                          ----                 ----         ----                                                                                                                                                                                                                 *
*    TEXT                                          8009                 8023         1B                                                                                                                                                                                                                   *
*    IRAM                                          ----                 ----         ----                                                                                                                                                                                                                 *
*    ISRAM                                         ----                 ----         ----                                                                                                                                                                                                                 *
*    RAM                                           ----                 ----         ----                                                                                                                                                                                                                 *
*    SRAM                                          ----                 ----         ----                                                                                                                                                                                                                 *
*    ORAM                                          ----                 ----         ----                                                                                                                                                                                                                 *
*    OSRAM                                         ----                 ----         ----                                                                                                                                                                                                                 *
*    NB_DATA                                       ----                 ----         ----                                                                                                                                                                                                                 *
*    CTOR                                          ----                 ----         ----                                                                                                                                                                                                                 *
*    DTOR                                          ----                 ----         ----                                                                                                                                                                                                                 *
*    IM                                            ----                 ----         ----                                                                                                                                                                                                                 *
*    LINKONCE                                      ----                 ----         ----                                                                                                                                                                                                                 *
*    VTBL                                          ----                 ----         ----                                                                                                                                                                                                                 *
*    NB_MERGE                                      ----                 ----         ----                                                                                                                                                                                                                 *
* "E:\AllProject\sunplus\mysound\Debug\2_16k.res"                                                                                                                                                                                                                                                         *
*    __sn_section_RES_2_16K(DATA)                  8FD0                 E2B2         52E3                                                                                                                                                                                                                 *
* "D:\WORKING\UNSP\LIBMAK~1\RELEASE\A2000"                                                                                                                                                                                                                                                                *
*    DEBUG                                         ----                 ----         ----                                                                                                                                                                                                                 *
*    CODE                                          8046                 8CEA         CA5                                                                                                                                                                                                                  *
*    DATA                                          ----                 ----         ----                                                                                                                                                                                                                 *
*    TEXT                                          ----                 ----         ----                                                                                                                                                                                                                 *
*    IRAM                                          8FCD  (388)          8FCF  (38A)  3                                                                                                                                                                                                                    *
*    ISRAM                                         ----                 ----         ----                                                                                                                                                                                                                 *
*    RAM                                           ----                 ----         ----                                                                                                                                                                                                                 *
*    SRAM                                          ----                 ----         ----                                                                                                                                                                                                                 *
*    ORAM                                          ----                 ----         ----                                                                                                                                                                                                                 *
*    OSRAM                                         ----                 ----         ----                                                                                                                                                                                                                 *
*    NB_DATA                                       ----                 ----         ----                                                                                                                                                                                                                 *
*    OVERLAP_SRAM_BLOCK(ORAM)                      2BA                  2F4          3B                                                                                                                                                                                                                   *
*    OVERLAP_RAM_BLOCK(ORAM)                       1                    2B9          2B9                                                                                                                                                                                                                  *
* "Init Table"                                     8000                 8008         9                                                                                                                                                                                                                    *
***********************************************************************************************************************************************************************************************************************************************************************************************************

***********************************************************************************************************************************************************************************************************************************************************************************************************
*                             M E M O R Y     S U M M A R Y                                                                                                                                                                                                                                               *
***********************************************************************************************************************************************************************************************************************************************************************************************************
*     Type                          Total               Using        Remain                                                                                                                                                                                                                               *
***********************************************************************************************************************************************************************************************************************************************************************************************************
* "SRam/OSRam/ISRam"                40                   0            40                                                                                                                                                                                                                                  *
* "Ram"                             800                  38B          475                                                                                                                                                                                                                                 *
* "First Bank Rom"                  7C00                 62B3         194D                                                                                                                                                                                                                                *
* "Other Banks Rom"                 0                    0            0                                                                                                                                                                                                                                   *
***********************************************************************************************************************************************************************************************************************************************************************************************************

Linker Output Filename : E:\AllProject\sunplus\mysound\Debug\123.S37
Disk  Mapping Filename : E:\AllProject\sunplus\mysound\Debug\123.map
Symbol  Table FileName : E:\AllProject\sunplus\mysound\Debug\123.sym
Format :                 Microtek

Linker Errors :          0
Output Format :          S37
