Thursday, October 01, 19:49:54, 2009

                    Sunplus u'nSP Linker version 1.14.3 (enc)
                    -------------------------------------------

Global Symbol Name                             Global Value     Global Filename
***********************************************************************************************************************************************************************************************************************************************************************************************************
_RESET                                             9FA3         "C:\PROGRA~1\Sunplus\UNSPID~1.0\startupD.obj"
__sn_loop                                          9FBF         "C:\PROGRA~1\Sunplus\UNSPID~1.0\startupD.obj"
__sn_loop2                                         9FBE         "C:\PROGRA~1\Sunplus\UNSPID~1.0\startupD.obj"
__sn_init_table                                    8000         "Linker internal symbol"
__sn_sp_val                                        7FF          "Linker internal symbol"
_RES_Table                                         9F57         "E:\program\sun\kkk  yuyinshibie\Debug\Resource.obj"
_RES_MZ_48K_SA                                     9F57         "E:\program\sun\kkk  yuyinshibie\Debug\Resource.obj"
_RES_MZ_48K_EA                                     9F59         "E:\program\sun\kkk  yuyinshibie\Debug\Resource.obj"
_RES_QJ_48K_SA                                     9F5B         "E:\program\sun\kkk  yuyinshibie\Debug\Resource.obj"
_RES_QJ_48K_EA                                     9F5D         "E:\program\sun\kkk  yuyinshibie\Debug\Resource.obj"
_RES_DC_48K_SA                                     9F5F         "E:\program\sun\kkk  yuyinshibie\Debug\Resource.obj"
_RES_DC_48K_EA                                     9F61         "E:\program\sun\kkk  yuyinshibie\Debug\Resource.obj"
_RES_ZG_48K_SA                                     9F63         "E:\program\sun\kkk  yuyinshibie\Debug\Resource.obj"
_RES_ZG_48K_EA                                     9F65         "E:\program\sun\kkk  yuyinshibie\Debug\Resource.obj"
_RES_YG_48K_SA                                     9F67         "E:\program\sun\kkk  yuyinshibie\Debug\Resource.obj"
_RES_YG_48K_EA                                     9F69         "E:\program\sun\kkk  yuyinshibie\Debug\Resource.obj"
_RES_YE_48K_SA                                     9F6B         "E:\program\sun\kkk  yuyinshibie\Debug\Resource.obj"
_RES_YE_48K_EA                                     9F6D         "E:\program\sun\kkk  yuyinshibie\Debug\Resource.obj"
_RES_YB_48K_SA                                     9F6F         "E:\program\sun\kkk  yuyinshibie\Debug\Resource.obj"
_RES_YB_48K_EA                                     9F71         "E:\program\sun\kkk  yuyinshibie\Debug\Resource.obj"
_RES_MY_48K_SA                                     9F73         "E:\program\sun\kkk  yuyinshibie\Debug\Resource.obj"
_RES_MY_48K_EA                                     9F75         "E:\program\sun\kkk  yuyinshibie\Debug\Resource.obj"
_RES_AY_48K_SA                                     9F77         "E:\program\sun\kkk  yuyinshibie\Debug\Resource.obj"
_RES_AY_48K_EA                                     9F79         "E:\program\sun\kkk  yuyinshibie\Debug\Resource.obj"
_RES_JX_48K_SA                                     9F7B         "E:\program\sun\kkk  yuyinshibie\Debug\Resource.obj"
_RES_JX_48K_EA                                     9F7D         "E:\program\sun\kkk  yuyinshibie\Debug\Resource.obj"
_RES_GJG_48K_SA                                    9F7F         "E:\program\sun\kkk  yuyinshibie\Debug\Resource.obj"
_RES_GJG_48K_EA                                    9F81         "E:\program\sun\kkk  yuyinshibie\Debug\Resource.obj"
T_SACM_S480_SpeechTable                            9F83         "E:\program\sun\kkk  yuyinshibie\Debug\Resource.obj"
_Delay                                             A6C9         "E:\program\sun\kkk  yuyinshibie\Debug\main.obj"
_PlaySnd                                           A6E5         "E:\program\sun\kkk  yuyinshibie\Debug\main.obj"
_TrainWord                                         A71D         "E:\program\sun\kkk  yuyinshibie\Debug\main.obj"
_TrainSD                                           A789         "E:\program\sun\kkk  yuyinshibie\Debug\main.obj"
_StoreSD                                           A7B3         "E:\program\sun\kkk  yuyinshibie\Debug\main.obj"
_LoadSD                                            A852         "E:\program\sun\kkk  yuyinshibie\Debug\main.obj"
_GoAhead                                           A8DC         "E:\program\sun\kkk  yuyinshibie\Debug\main.obj"
_BackUp                                            A905         "E:\program\sun\kkk  yuyinshibie\Debug\main.obj"
_TurnLeft                                          A92E         "E:\program\sun\kkk  yuyinshibie\Debug\main.obj"
_TurnRight                                         A95F         "E:\program\sun\kkk  yuyinshibie\Debug\main.obj"
_led_on                                            A990         "E:\program\sun\kkk  yuyinshibie\Debug\main.obj"
_main                                              A99A         "E:\program\sun\kkk  yuyinshibie\Debug\main.obj"
_F_FlashWrite1Word                                 AC40         "E:\program\sun\kkk  yuyinshibie\Debug\Flash.obj"
_F_FlashWrite                                      AC50         "E:\program\sun\kkk  yuyinshibie\Debug\Flash.obj"
_F_FlashErase                                      AC66         "E:\program\sun\kkk  yuyinshibie\Debug\Flash.obj"
F_SP_RampUpDAC1                                    AB87         "E:\program\sun\kkk  yuyinshibie\Debug\hardware.obj"
F_SP_RampDnDAC1                                    ABAB         "E:\program\sun\kkk  yuyinshibie\Debug\hardware.obj"
F_SP_RampUpDAC2                                    ABBD         "E:\program\sun\kkk  yuyinshibie\Debug\hardware.obj"
F_SP_RampDnDAC2                                    ABE1         "E:\program\sun\kkk  yuyinshibie\Debug\hardware.obj"
_SP_RampUpDAC1                                     AB87         "E:\program\sun\kkk  yuyinshibie\Debug\hardware.obj"
_SP_RampDnDAC1                                     ABAB         "E:\program\sun\kkk  yuyinshibie\Debug\hardware.obj"
_SP_RampUpDAC2                                     ABBD         "E:\program\sun\kkk  yuyinshibie\Debug\hardware.obj"
_SP_RampDnDAC2                                     ABE1         "E:\program\sun\kkk  yuyinshibie\Debug\hardware.obj"
_SP_InitQueue                                      AA61         "E:\program\sun\kkk  yuyinshibie\Debug\hardware.obj"
_SP_InitQueue_A2000                                AA61         "E:\program\sun\kkk  yuyinshibie\Debug\hardware.obj"
_SP_InitQueue_S480                                 AA61         "E:\program\sun\kkk  yuyinshibie\Debug\hardware.obj"
_SP_InitQueue_S240                                 AA61         "E:\program\sun\kkk  yuyinshibie\Debug\hardware.obj"
_SP_InitQueue_MS01                                 AA61         "E:\program\sun\kkk  yuyinshibie\Debug\hardware.obj"
_SP_InitQueue_DVR                                  AA61         "E:\program\sun\kkk  yuyinshibie\Debug\hardware.obj"
F_SP_InitQueue                                     AA61         "E:\program\sun\kkk  yuyinshibie\Debug\hardware.obj"
F_SP_InitQueue_A2000                               AA61         "E:\program\sun\kkk  yuyinshibie\Debug\hardware.obj"
F_SP_InitQueue_S480                                AA61         "E:\program\sun\kkk  yuyinshibie\Debug\hardware.obj"
F_SP_InitQueue_S240                                AA61         "E:\program\sun\kkk  yuyinshibie\Debug\hardware.obj"
F_SP_InitQueue_MS01                                AA61         "E:\program\sun\kkk  yuyinshibie\Debug\hardware.obj"
F_SP_InitQueue_DVR                                 AA61         "E:\program\sun\kkk  yuyinshibie\Debug\hardware.obj"
F_SP_ReadQueue                                     AA6E         "E:\program\sun\kkk  yuyinshibie\Debug\hardware.obj"
F_SP_ReadQueue_A2000                               AA6E         "E:\program\sun\kkk  yuyinshibie\Debug\hardware.obj"
F_SP_ReadQueue_S480                                AA6E         "E:\program\sun\kkk  yuyinshibie\Debug\hardware.obj"
F_SP_ReadQueue_S240                                AA6E         "E:\program\sun\kkk  yuyinshibie\Debug\hardware.obj"
F_SP_ReadQueue_MS01                                AA6E         "E:\program\sun\kkk  yuyinshibie\Debug\hardware.obj"
F_SP_ReadQueue_DVR                                 AA6E         "E:\program\sun\kkk  yuyinshibie\Debug\hardware.obj"
F_SP_ReadQueue_NIC                                 AA81         "E:\program\sun\kkk  yuyinshibie\Debug\hardware.obj"
F_SP_ReadQueue_NIC_A2000                           AA81         "E:\program\sun\kkk  yuyinshibie\Debug\hardware.obj"
F_SP_ReadQueue_NIC_S480                            AA81         "E:\program\sun\kkk  yuyinshibie\Debug\hardware.obj"
F_SP_ReadQueue_NIC_S240                            AA81         "E:\program\sun\kkk  yuyinshibie\Debug\hardware.obj"
F_SP_ReadQueue_NIC_MS01                            AA81         "E:\program\sun\kkk  yuyinshibie\Debug\hardware.obj"
F_SP_ReadQueue_NIC_DVR                             AA81         "E:\program\sun\kkk  yuyinshibie\Debug\hardware.obj"
F_SP_WriteQueue                                    AA8A         "E:\program\sun\kkk  yuyinshibie\Debug\hardware.obj"
F_SP_WriteQueue_A2000                              AA8A         "E:\program\sun\kkk  yuyinshibie\Debug\hardware.obj"
F_SP_WriteQueue_S480                               AA8A         "E:\program\sun\kkk  yuyinshibie\Debug\hardware.obj"
F_SP_WriteQueue_S240                               AA8A         "E:\program\sun\kkk  yuyinshibie\Debug\hardware.obj"
F_SP_WriteQueue_MS01                               AA8A         "E:\program\sun\kkk  yuyinshibie\Debug\hardware.obj"
F_SP_WriteQueue_DVR                                AA8A         "E:\program\sun\kkk  yuyinshibie\Debug\hardware.obj"
F_SP_TestQueue                                     AA99         "E:\program\sun\kkk  yuyinshibie\Debug\hardware.obj"
F_SP_TestQueue_A2000                               AA99         "E:\program\sun\kkk  yuyinshibie\Debug\hardware.obj"
F_SP_TestQueue_S480                                AA99         "E:\program\sun\kkk  yuyinshibie\Debug\hardware.obj"
F_SP_TestQueue_S240                                AA99         "E:\program\sun\kkk  yuyinshibie\Debug\hardware.obj"
F_SP_TestQueue_MS01                                AA99         "E:\program\sun\kkk  yuyinshibie\Debug\hardware.obj"
F_SP_TestQueue_DVR                                 AA99         "E:\program\sun\kkk  yuyinshibie\Debug\hardware.obj"
_SP_Export                                         AC20         "E:\program\sun\kkk  yuyinshibie\Debug\hardware.obj"
_SP_Import                                         AC19         "E:\program\sun\kkk  yuyinshibie\Debug\hardware.obj"
_SP_Init_IOB                                       AC09         "E:\program\sun\kkk  yuyinshibie\Debug\hardware.obj"
_SP_Init_IOA                                       ABF9         "E:\program\sun\kkk  yuyinshibie\Debug\hardware.obj"
_SP_GetResource                                    AC2A         "E:\program\sun\kkk  yuyinshibie\Debug\hardware.obj"
F_SP_GetResource                                   AC38         "E:\program\sun\kkk  yuyinshibie\Debug\hardware.obj"
F_SP_SACM_A2000_Init_                              AAB2         "E:\program\sun\kkk  yuyinshibie\Debug\hardware.obj"
F_SP_SACM_S480_Init_                               AACE         "E:\program\sun\kkk  yuyinshibie\Debug\hardware.obj"
F_SP_SACM_S240_Init_                               AAE9         "E:\program\sun\kkk  yuyinshibie\Debug\hardware.obj"
F_SP_SACM_MS01_Init_                               AB04         "E:\program\sun\kkk  yuyinshibie\Debug\hardware.obj"
F_SP_PlayMode0_                                    AB16         "E:\program\sun\kkk  yuyinshibie\Debug\hardware.obj"
F_SP_PlayMode1_                                    AB26         "E:\program\sun\kkk  yuyinshibie\Debug\hardware.obj"
F_SP_PlayMode2_                                    AB37         "E:\program\sun\kkk  yuyinshibie\Debug\hardware.obj"
F_SP_PlayMode3_                                    AB48         "E:\program\sun\kkk  yuyinshibie\Debug\hardware.obj"
F_SP_SACM_DVR_Init_                                AB59         "E:\program\sun\kkk  yuyinshibie\Debug\hardware.obj"
F_SP_SACM_DVR_Rec_Init_                            AB77         "E:\program\sun\kkk  yuyinshibie\Debug\hardware.obj"
F_SP_SACM_DVR_Play_Init_                           AB7F         "E:\program\sun\kkk  yuyinshibie\Debug\hardware.obj"
R_InterruptStatus                                  44E          "E:\program\sun\kkk  yuyinshibie\Debug\hardware.obj"
F_RampUpDAC1                                       AB87         "E:\program\sun\kkk  yuyinshibie\Debug\hardware.obj"
F_RampDnDAC1                                       ABAB         "E:\program\sun\kkk  yuyinshibie\Debug\hardware.obj"
F_RampUpDAC2                                       ABBD         "E:\program\sun\kkk  yuyinshibie\Debug\hardware.obj"
F_RampDnDAC2                                       ABE1         "E:\program\sun\kkk  yuyinshibie\Debug\hardware.obj"
_STD_RampUpDAC1                                    AB87         "E:\program\sun\kkk  yuyinshibie\Debug\hardware.obj"
_STD_RampDnDAC1                                    ABAB         "E:\program\sun\kkk  yuyinshibie\Debug\hardware.obj"
_STD_RampUpDAC2                                    ABBD         "E:\program\sun\kkk  yuyinshibie\Debug\hardware.obj"
_STD_RampDnDAC2                                    ABE1         "E:\program\sun\kkk  yuyinshibie\Debug\hardware.obj"
_FIQ                                               9F8E         "E:\program\sun\kkk  yuyinshibie\Debug\ISR.obj"
__RES_MZ_48K_sa                                    B55A         "E:\program\sun\kkk  yuyinshibie\Debug\mz_48k.res"
__RES_MZ_48K_ea                                    B74C         "E:\program\sun\kkk  yuyinshibie\Debug\mz_48k.res"
__RES_QJ_48K_sa                                    BC26         "E:\program\sun\kkk  yuyinshibie\Debug\qj_48k.res"
__RES_QJ_48K_ea                                    BD13         "E:\program\sun\kkk  yuyinshibie\Debug\qj_48k.res"
__RES_DC_48K_sa                                    B74C         "E:\program\sun\kkk  yuyinshibie\Debug\dc_48k.res"
__RES_DC_48K_ea                                    B935         "E:\program\sun\kkk  yuyinshibie\Debug\dc_48k.res"
__RES_ZG_48K_sa                                    BDF7         "E:\program\sun\kkk  yuyinshibie\Debug\zg_48k.res"
__RES_ZG_48K_ea                                    BED2         "E:\program\sun\kkk  yuyinshibie\Debug\zg_48k.res"
__RES_YG_48K_sa                                    BD13         "E:\program\sun\kkk  yuyinshibie\Debug\yg_48k.res"
__RES_YG_48K_ea                                    BDF7         "E:\program\sun\kkk  yuyinshibie\Debug\yg_48k.res"
__RES_YE_48K_sa                                    BED2         "E:\program\sun\kkk  yuyinshibie\Debug\ye_48k.res"
__RES_YE_48K_ea                                    BFA4         "E:\program\sun\kkk  yuyinshibie\Debug\ye_48k.res"
__RES_YB_48K_sa                                    B935         "E:\program\sun\kkk  yuyinshibie\Debug\yb_48k.res"
__RES_YB_48K_ea                                    BB1E         "E:\program\sun\kkk  yuyinshibie\Debug\yb_48k.res"
__RES_MY_48K_sa                                    B0C2         "E:\program\sun\kkk  yuyinshibie\Debug\my_48k.res"
__RES_MY_48K_ea                                    B368         "E:\program\sun\kkk  yuyinshibie\Debug\my_48k.res"
__RES_AY_48K_sa                                    B368         "E:\program\sun\kkk  yuyinshibie\Debug\ay_48k.res"
__RES_AY_48K_ea                                    B55A         "E:\program\sun\kkk  yuyinshibie\Debug\ay_48k.res"
__RES_JX_48K_sa                                    ACEA         "E:\program\sun\kkk  yuyinshibie\Debug\jx_48k.res"
__RES_JX_48K_ea                                    B0C2         "E:\program\sun\kkk  yuyinshibie\Debug\jx_48k.res"
__RES_GJG_48K_sa                                   BB1E         "E:\program\sun\kkk  yuyinshibie\Debug\gjg_48k.res"
__RES_GJG_48K_ea                                   BC26         "E:\program\sun\kkk  yuyinshibie\Debug\gjg_48k.res"
***********************************************************************************************************************************************************************************************************************************************************************************************************

***********************************************************************************************************************************************************************************************************************************************************************************************************
*                             S E C T I O N     S U M M A R Y                                                                                                                                                                                                                                             *
***********************************************************************************************************************************************************************************************************************************************************************************************************
*     Section Name                             Startting Address   Ending Address    Size                                                                                                                                                                                                                 *
***********************************************************************************************************************************************************************************************************************************************************************************************************
* "C:\PROGRA~1\Sunplus\UNSPID~1.0\startupD.obj"                                                                                                                                                                                                                                                           *
*    DEBUG                                         ----                 ----         ----                                                                                                                                                                                                                 *
*    CODE                                          ----                 ----         ----                                                                                                                                                                                                                 *
*    DATA                                          ----                 ----         ----                                                                                                                                                                                                                 *
*    TEXT                                          ----                 ----         ----                                                                                                                                                                                                                 *
*    IRAM                                          ----                 ----         ----                                                                                                                                                                                                                 *
*    ISRAM                                         ----                 ----         ----                                                                                                                                                                                                                 *
*    RAM                                           ----                 ----         ----                                                                                                                                                                                                                 *
*    SRAM                                          ----                 ----         ----                                                                                                                                                                                                                 *
*    ORAM                                          ----                 ----         ----                                                                                                                                                                                                                 *
*    OSRAM                                         ----                 ----         ----                                                                                                                                                                                                                 *
*    NB_DATA                                       ----                 ----         ----                                                                                                                                                                                                                 *
*    CTOR                                          ----                 ----         ----                                                                                                                                                                                                                 *
*    DTOR                                          ----                 ----         ----                                                                                                                                                                                                                 *
*    IM                                            ----                 ----         ----                                                                                                                                                                                                                 *
*    LINKONCE                                      ----                 ----         ----                                                                                                                                                                                                                 *
*    VTBL                                          ----                 ----         ----                                                                                                                                                                                                                 *
*    NB_MERGE                                      ----                 ----         ----                                                                                                                                                                                                                 *
*    unSP_StartUp(TEXT)                            9FA3                 9FBF         1D                                                                                                                                                                                                                   *
* "E:\program\sun\kkk  yuyinshibie\Debug\Resource.obj"                                                                                                                                                                                                                                                    *
*    DEBUG                                         ----                 ----         ----                                                                                                                                                                                                                 *
*    CODE                                          ----                 ----         ----                                                                                                                                                                                                                 *
*    DATA                                          ----                 ----         ----                                                                                                                                                                                                                 *
*    TEXT                                          9F57                 9F8D         37                                                                                                                                                                                                                   *
*    IRAM                                          ----                 ----         ----                                                                                                                                                                                                                 *
*    ISRAM                                         ----                 ----         ----                                                                                                                                                                                                                 *
*    RAM                                           ----                 ----         ----                                                                                                                                                                                                                 *
*    SRAM                                          ----                 ----         ----                                                                                                                                                                                                                 *
*    ORAM                                          ----                 ----         ----                                                                                                                                                                                                                 *
*    OSRAM                                         ----                 ----         ----                                                                                                                                                                                                                 *
*    NB_DATA                                       ----                 ----         ----                                                                                                                                                                                                                 *
*    CTOR                                          ----                 ----         ----                                                                                                                                                                                                                 *
*    DTOR                                          ----                 ----         ----                                                                                                                                                                                                                 *
*    IM                                            ----                 ----         ----                                                                                                                                                                                                                 *
*    LINKONCE                                      ----                 ----         ----                                                                                                                                                                                                                 *
*    VTBL                                          ----                 ----         ----                                                                                                                                                                                                                 *
*    NB_MERGE                                      ----                 ----         ----                                                                                                                                                                                                                 *
* "E:\program\sun\kkk  yuyinshibie\Debug\main.obj"                                                                                                                                                                                                                                                        *
*    DEBUG                                         ----                 ----         ----                                                                                                                                                                                                                 *
*    CODE                                          A6C9                 AA60         398                                                                                                                                                                                                                  *
*    DATA                                          ----                 ----         ----                                                                                                                                                                                                                 *
*    TEXT                                          9F99                 9FA2         A                                                                                                                                                                                                                    *
*    IRAM                                          ----                 ----         ----                                                                                                                                                                                                                 *
*    ISRAM                                         ----                 ----         ----                                                                                                                                                                                                                 *
*    RAM                                           ----                 ----         ----                                                                                                                                                                                                                 *
*    SRAM                                          ----                 ----         ----                                                                                                                                                                                                                 *
*    ORAM                                          ----                 ----         ----                                                                                                                                                                                                                 *
*    OSRAM                                         ----                 ----         ----                                                                                                                                                                                                                 *
*    NB_DATA                                       ----                 ----         ----                                                                                                                                                                                                                 *
*    CTOR                                          ----                 ----         ----                                                                                                                                                                                                                 *
*    DTOR                                          ----                 ----         ----                                                                                                                                                                                                                 *
*    IM                                            ----                 ----         ----                                                                                                                                                                                                                 *
*    LINKONCE                                      ----                 ----         ----                                                                                                                                                                                                                 *
*    VTBL                                          ----                 ----         ----                                                                                                                                                                                                                 *
*    NB_MERGE                                      ----                 ----         ----                                                                                                                                                                                                                 *
* "E:\program\sun\kkk  yuyinshibie\Debug\Flash.obj"                                                                                                                                                                                                                                                       *
*    DEBUG                                         ----                 ----         ----                                                                                                                                                                                                                 *
*    CODE                                          AC40                 AC74         35                                                                                                                                                                                                                   *
*    DATA                                          ----                 ----         ----                                                                                                                                                                                                                 *
*    TEXT                                          ----                 ----         ----                                                                                                                                                                                                                 *
*    IRAM                                          ----                 ----         ----                                                                                                                                                                                                                 *
*    ISRAM                                         ----                 ----         ----                                                                                                                                                                                                                 *
*    RAM                                           ----                 ----         ----                                                                                                                                                                                                                 *
*    SRAM                                          ----                 ----         ----                                                                                                                                                                                                                 *
*    ORAM                                          ----                 ----         ----                                                                                                                                                                                                                 *
*    OSRAM                                         ----                 ----         ----                                                                                                                                                                                                                 *
*    NB_DATA                                       ----                 ----         ----                                                                                                                                                                                                                 *
*    CTOR                                          ----                 ----         ----                                                                                                                                                                                                                 *
*    DTOR                                          ----                 ----         ----                                                                                                                                                                                                                 *
*    IM                                            ----                 ----         ----                                                                                                                                                                                                                 *
*    LINKONCE                                      ----                 ----         ----                                                                                                                                                                                                                 *
*    VTBL                                          ----                 ----         ----                                                                                                                                                                                                                 *
*    NB_MERGE                                      ----                 ----         ----                                                                                                                                                                                                                 *
*    RAM_BANK0                                     ----                 ----         ----                                                                                                                                                                                                                 *
*    IRAM_BANK0                                    ----                 ----         ----                                                                                                                                                                                                                 *
*    ORAM_BANK0                                    ----                 ----         ----                                                                                                                                                                                                                 *
* "E:\program\sun\kkk  yuyinshibie\Debug\hardware.obj"                                                                                                                                                                                                                                                    *
*    DEBUG                                         ----                 ----         ----                                                                                                                                                                                                                 *
*    CODE                                          AA61                 AC3F         1DF                                                                                                                                                                                                                  *
*    DATA                                          ----                 ----         ----                                                                                                                                                                                                                 *
*    TEXT                                          ----                 ----         ----                                                                                                                                                                                                                 *
*    IRAM                                          AC81  (44E)          ACE7  (4B4)  67                                                                                                                                                                                                                   *
*    ISRAM                                         ----                 ----         ----                                                                                                                                                                                                                 *
*    RAM                                           ----                 ----         ----                                                                                                                                                                                                                 *
*    SRAM                                          ----                 ----         ----                                                                                                                                                                                                                 *
*    ORAM                                          ----                 ----         ----                                                                                                                                                                                                                 *
*    OSRAM                                         ----                 ----         ----                                                                                                                                                                                                                 *
*    NB_DATA                                       ----                 ----         ----                                                                                                                                                                                                                 *
*    CTOR                                          ----                 ----         ----                                                                                                                                                                                                                 *
*    DTOR                                          ----                 ----         ----                                                                                                                                                                                                                 *
*    IM                                            ----                 ----         ----                                                                                                                                                                                                                 *
*    LINKONCE                                      ----                 ----         ----                                                                                                                                                                                                                 *
*    VTBL                                          ----                 ----         ----                                                                                                                                                                                                                 *
*    NB_MERGE                                      ----                 ----         ----                                                                                                                                                                                                                 *
*    RAM_BANK0                                     ----                 ----         ----                                                                                                                                                                                                                 *
*    IRAM_BANK0                                    ----                 ----         ----                                                                                                                                                                                                                 *
*    ORAM_BANK0                                    ----                 ----         ----                                                                                                                                                                                                                 *
* "E:\program\sun\kkk  yuyinshibie\Debug\ISR.obj"                                                                                                                                                                                                                                                         *
*    DEBUG                                         ----                 ----         ----                                                                                                                                                                                                                 *
*    CODE                                          ----                 ----         ----                                                                                                                                                                                                                 *
*    DATA                                          ----                 ----         ----                                                                                                                                                                                                                 *
*    TEXT                                          9F8E                 9F98         B                                                                                                                                                                                                                    *
*    IRAM                                          ----                 ----         ----                                                                                                                                                                                                                 *
*    ISRAM                                         ----                 ----         ----                                                                                                                                                                                                                 *
*    RAM                                           ----                 ----         ----                                                                                                                                                                                                                 *
*    SRAM                                          ----                 ----         ----                                                                                                                                                                                                                 *
*    ORAM                                          ----                 ----         ----                                                                                                                                                                                                                 *
*    OSRAM                                         ----                 ----         ----                                                                                                                                                                                                                 *
*    NB_DATA                                       ----                 ----         ----                                                                                                                                                                                                                 *
*    CTOR                                          ----                 ----         ----                                                                                                                                                                                                                 *
*    DTOR                                          ----                 ----         ----                                                                                                                                                                                                                 *
*    IM                                            ----                 ----         ----                                                                                                                                                                                                                 *
*    LINKONCE                                      ----                 ----         ----                                                                                                                                                                                                                 *
*    VTBL                                          ----                 ----         ----                                                                                                                                                                                                                 *
*    NB_MERGE                                      ----                 ----         ----                                                                                                                                                                                                                 *
*    RAM_BANK0                                     ----                 ----         ----                                                                                                                                                                                                                 *
*    IRAM_BANK0                                    ----                 ----         ----                                                                                                                                                                                                                 *
*    ORAM_BANK0                                    ----                 ----         ----                                                                                                                                                                                                                 *
* "E:\program\sun\kkk  yuyinshibie\Debug\mz_48k.res"                                                                                                                                                                                                                                                      *
*    __sn_section_RES_MZ_48K(DATA)                 B55A                 B74B         1F2                                                                                                                                                                                                                  *
* "E:\program\sun\kkk  yuyinshibie\Debug\qj_48k.res"                                                                                                                                                                                                                                                      *
*    __sn_section_RES_QJ_48K(DATA)                 BC26                 BD12         ED                                                                                                                                                                                                                   *
* "E:\program\sun\kkk  yuyinshibie\Debug\dc_48k.res"                                                                                                                                                                                                                                                      *
*    __sn_section_RES_DC_48K(DATA)                 B74C                 B934         1E9                                                                                                                                                                                                                  *
* "E:\program\sun\kkk  yuyinshibie\Debug\zg_48k.res"                                                                                                                                                                                                                                                      *
*    __sn_section_RES_ZG_48K(DATA)                 BDF7                 BED1         DB                                                                                                                                                                                                                   *
* "E:\program\sun\kkk  yuyinshibie\Debug\yg_48k.res"                                                                                                                                                                                                                                                      *
*    __sn_section_RES_YG_48K(DATA)                 BD13                 BDF6         E4                                                                                                                                                                                                                   *
* "E:\program\sun\kkk  yuyinshibie\Debug\ye_48k.res"                                                                                                                                                                                                                                                      *
*    __sn_section_RES_YE_48K(DATA)                 BED2                 BFA3         D2                                                                                                                                                                                                                   *
* "E:\program\sun\kkk  yuyinshibie\Debug\yb_48k.res"                                                                                                                                                                                                                                                      *
*    __sn_section_RES_YB_48K(DATA)                 B935                 BB1D         1E9                                                                                                                                                                                                                  *
* "E:\program\sun\kkk  yuyinshibie\Debug\my_48k.res"                                                                                                                                                                                                                                                      *
*    __sn_section_RES_MY_48K(DATA)                 B0C2                 B367         2A6                                                                                                                                                                                                                  *
* "E:\program\sun\kkk  yuyinshibie\Debug\ay_48k.res"                                                                                                                                                                                                                                                      *
*    __sn_section_RES_AY_48K(DATA)                 B368                 B559         1F2                                                                                                                                                                                                                  *
* "E:\program\sun\kkk  yuyinshibie\Debug\jx_48k.res"                                                                                                                                                                                                                                                      *
*    __sn_section_RES_JX_48K(DATA)                 ACEA                 B0C1         3D8                                                                                                                                                                                                                  *
* "E:\program\sun\kkk  yuyinshibie\Debug\gjg_48k.res"                                                                                                                                                                                                                                                     *
*    __sn_section_RES_GJG_48K(DATA)                BB1E                 BC25         108                                                                                                                                                                                                                  *
* "BSRSDCON"                                                                                                                                                                                                                                                                                              *
*    DEBUG                                         ----                 ----         ----                                                                                                                                                                                                                 *
*    CODE                                          ----                 ----         ----                                                                                                                                                                                                                 *
*    DATA                                          ----                 ----         ----                                                                                                                                                                                                                 *
*    TEXT                                          8009                 9C65         1C5D                                                                                                                                                                                                                 *
*    IRAM                                          ----                 ----         ----                                                                                                                                                                                                                 *
*    ISRAM                                         ----                 ----         ----                                                                                                                                                                                                                 *
*    RAM                                           ----                 ----         ----                                                                                                                                                                                                                 *
*    SRAM                                          ----                 ----         ----                                                                                                                                                                                                                 *
*    ORAM                                          ----                 ----         ----                                                                                                                                                                                                                 *
*    OSRAM                                         ----                 ----         ----                                                                                                                                                                                                                 *
*    NB_DATA                                       ----                 ----         ----                                                                                                                                                                                                                 *
*    BSR_IRAM_EXCLUSIVE(IRAM)                      AC75  (442)          AC80  (44D)  C                                                                                                                                                                                                                    *
*    BSR_RAM_EXCLUSIVE(RAM)                        42C                  441          16                                                                                                                                                                                                                   *
*    BSR_RAM_BLOCK(RAM)                            362                  42B          CA                                                                                                                                                                                                                   *
*    OVERLAP_RAM_BLOCK(ORAM)                       1                    361          361                                                                                                                                                                                                                  *
* "D:\WORKING\UNSP\LIBMAK~1\RELEASE\S480"                                                                                                                                                                                                                                                                 *
*    DEBUG                                         ----                 ----         ----                                                                                                                                                                                                                 *
*    CODE                                          9FC0                 A6C8         709                                                                                                                                                                                                                  *
*    DATA                                          ----                 ----         ----                                                                                                                                                                                                                 *
*    TEXT                                          9C66                 9F56         2F1                                                                                                                                                                                                                  *
*    IRAM                                          ACE8  (4B5)          ACE9  (4B6)  2                                                                                                                                                                                                                    *
*    ISRAM                                         ----                 ----         ----                                                                                                                                                                                                                 *
*    RAM                                           ----                 ----         ----                                                                                                                                                                                                                 *
*    SRAM                                          ----                 ----         ----                                                                                                                                                                                                                 *
*    ORAM                                          ----                 ----         ----                                                                                                                                                                                                                 *
*    OSRAM                                         ----                 ----         ----                                                                                                                                                                                                                 *
*    NB_DATA                                       ----                 ----         ----                                                                                                                                                                                                                 *
*    OVERLAP_RAM_BLOCK(ORAM)                       1                    1A3          1A3                                                                                                                                                                                                                  *
* "Init Table"                                     8000                 8008         9                                                                                                                                                                                                                    *
***********************************************************************************************************************************************************************************************************************************************************************************************************

***********************************************************************************************************************************************************************************************************************************************************************************************************
*                             M E M O R Y     S U M M A R Y                                                                                                                                                                                                                                               *
***********************************************************************************************************************************************************************************************************************************************************************************************************
*     Type                          Total               Using        Remain                                                                                                                                                                                                                               *
***********************************************************************************************************************************************************************************************************************************************************************************************************
* "SRam/OSRam/ISRam"                40                   0            40                                                                                                                                                                                                                                  *
* "Ram"                             800                  4B7          349                                                                                                                                                                                                                                 *
* "First Bank Rom"                  7C00                 3FA4         3C5C                                                                                                                                                                                                                                *
* "Other Banks Rom"                 0                    0            0                                                                                                                                                                                                                                   *
***********************************************************************************************************************************************************************************************************************************************************************************************************

Linker Output Filename : E:\program\sun\kkk  yuyinshibie\Debug\Car_Demo.S37
Disk  Mapping Filename : E:\program\sun\kkk  yuyinshibie\Debug\Car_Demo.map
Symbol  Table FileName : E:\program\sun\kkk  yuyinshibie\Debug\Car_Demo.sym
Format :                 Microtek

Linker Errors :          0
Output Format :          S37
