Saturday, June 04, 18:40:25, 2011

                    Sunplus u'nSP Linker version 1.14.3 (enc)
                    -------------------------------------------

Global Symbol Name                             Global Value     Global Filename
***********************************************************************************************************************************************************************************************************************************************************************************************************
_RESET                                             85AC         "C:\Program Files\Sunplus\unSP IDE 2.0.0\startupD.obj"
__sn_loop                                          85C8         "C:\Program Files\Sunplus\unSP IDE 2.0.0\startupD.obj"
__sn_loop2                                         85C7         "C:\Program Files\Sunplus\unSP IDE 2.0.0\startupD.obj"
__sn_init_table                                    8000         "Linker internal symbol"
__sn_sp_val                                        7FF          "Linker internal symbol"
_RES_Table                                         8592         "E:\zhaoyongke\Demo\Receive\Debug\Resource.obj"
_RES_1_A24_SA                                      8592         "E:\zhaoyongke\Demo\Receive\Debug\Resource.obj"
_RES_1_A24_EA                                      8594         "E:\zhaoyongke\Demo\Receive\Debug\Resource.obj"
_RES_2_A24_SA                                      8596         "E:\zhaoyongke\Demo\Receive\Debug\Resource.obj"
_RES_2_A24_EA                                      8598         "E:\zhaoyongke\Demo\Receive\Debug\Resource.obj"
_RES_3_A24_SA                                      859A         "E:\zhaoyongke\Demo\Receive\Debug\Resource.obj"
_RES_3_A24_EA                                      859C         "E:\zhaoyongke\Demo\Receive\Debug\Resource.obj"
_SACM_A1600_SpeechTable                            859E         "E:\zhaoyongke\Demo\Receive\Debug\Resource.obj"
_main                                              9520         "E:\zhaoyongke\Demo\Receive\Debug\main.obj"
_RxBuf                                             1C4          "E:\zhaoyongke\Demo\Receive\Debug\main.obj"
_InitData                                          8583         "E:\zhaoyongke\Demo\Receive\Debug\nRF2401.obj"
_nRF2401_Initial                                   8BA0         "E:\zhaoyongke\Demo\Receive\Debug\nRF2401.obj"
_nRF2401_ON                                        8BD6         "E:\zhaoyongke\Demo\Receive\Debug\nRF2401.obj"
_nRF2401_OFF                                       8BE3         "E:\zhaoyongke\Demo\Receive\Debug\nRF2401.obj"
_nRF2401_WriteCommand                              8BF0         "E:\zhaoyongke\Demo\Receive\Debug\nRF2401.obj"
_nRF2401_Mode                                      8C30         "E:\zhaoyongke\Demo\Receive\Debug\nRF2401.obj"
_nRF2401_SetAddress                                8C6A         "E:\zhaoyongke\Demo\Receive\Debug\nRF2401.obj"
_nRF2401_WriteByte                                 8C9B         "E:\zhaoyongke\Demo\Receive\Debug\nRF2401.obj"
_nRF2401_WriteWord                                 8CEB         "E:\zhaoyongke\Demo\Receive\Debug\nRF2401.obj"
_nRF2401_SendByte                                  8D3B         "E:\zhaoyongke\Demo\Receive\Debug\nRF2401.obj"
_nRF2401_SendWord                                  8D82         "E:\zhaoyongke\Demo\Receive\Debug\nRF2401.obj"
_nRF2401_SendBuffer_Byte                           8DC9         "E:\zhaoyongke\Demo\Receive\Debug\nRF2401.obj"
_nRF2401_SendBuffer_Word                           8E28         "E:\zhaoyongke\Demo\Receive\Debug\nRF2401.obj"
_nRF2401_RxStatus                                  8E87         "E:\zhaoyongke\Demo\Receive\Debug\nRF2401.obj"
_nRF2401_ReceiveByte                               8E9E         "E:\zhaoyongke\Demo\Receive\Debug\nRF2401.obj"
_nRF2401_ReceiveWord                               8F33         "E:\zhaoyongke\Demo\Receive\Debug\nRF2401.obj"
_Delay_Us                                          8FC8         "E:\zhaoyongke\Demo\Receive\Debug\nRF2401.obj"
_AddrBuffer                                        1DD          "E:\zhaoyongke\Demo\Receive\Debug\nRF2401.obj"
_AddrByteCnt                                       1E2          "E:\zhaoyongke\Demo\Receive\Debug\nRF2401.obj"
F_SACM_A1600_Init                                  9402         "E:\zhaoyongke\Demo\Receive\Debug\SACM_A1600.obj"
F_SACM_A1600_DAC_Timer_X1                          9413         "E:\zhaoyongke\Demo\Receive\Debug\SACM_A1600.obj"
F_SACM_A1600_DAC_Timer_X2                          941D         "E:\zhaoyongke\Demo\Receive\Debug\SACM_A1600.obj"
F_SACM_A1600_SendDAC1                              9427         "E:\zhaoyongke\Demo\Receive\Debug\SACM_A1600.obj"
F_SACM_A1600_SendDAC2                              942C         "E:\zhaoyongke\Demo\Receive\Debug\SACM_A1600.obj"
F_SACM_A1600_EndPlay                               9431         "E:\zhaoyongke\Demo\Receive\Debug\SACM_A1600.obj"
F_SACM_A1600_RampUpDAC1                            9433         "E:\zhaoyongke\Demo\Receive\Debug\SACM_A1600.obj"
F_SACM_A1600_RampUpDAC2                            9451         "E:\zhaoyongke\Demo\Receive\Debug\SACM_A1600.obj"
F_SACM_A1600_RampDnDAC1                            946F         "E:\zhaoyongke\Demo\Receive\Debug\SACM_A1600.obj"
F_SACM_A1600_RampDnDAC2                            947E         "E:\zhaoyongke\Demo\Receive\Debug\SACM_A1600.obj"
_USER_A1600_GetResource_Init                       959B         "E:\zhaoyongke\Demo\Receive\Debug\SACM_A1600_User_C.obj"
_USER_A1600_GetResource                            95B1         "E:\zhaoyongke\Demo\Receive\Debug\SACM_A1600_User_C.obj"
_ResAddr                                           1E3          "E:\zhaoyongke\Demo\Receive\Debug\SACM_A1600_User_C.obj"
_PlaySnd                                           962A         "E:\zhaoyongke\Demo\Receive\Debug\Snd.obj"
_FIQ                                               8573         "E:\zhaoyongke\Demo\Receive\Debug\Snd.obj"
_delay                                             9494         "E:\zhaoyongke\Demo\Receive\Debug\led.obj"
_show                                              94AB         "E:\zhaoyongke\Demo\Receive\Debug\led.obj"
_getkey                                            95EC         "E:\zhaoyongke\Demo\Receive\Debug\key.obj"
__RES_1_A24_sa                                     99B0         "E:\zhaoyongke\Demo\Receive\Debug\1_A24.res"
__RES_1_A24_ea                                     9BAB         "E:\zhaoyongke\Demo\Receive\Debug\1_A24.res"
__RES_2_A24_sa                                     9BAB         "E:\zhaoyongke\Demo\Receive\Debug\2_A24.res"
__RES_2_A24_ea                                     9D8E         "E:\zhaoyongke\Demo\Receive\Debug\2_A24.res"
__RES_3_A24_sa                                     9695         "E:\zhaoyongke\Demo\Receive\Debug\3_A24.res"
__RES_3_A24_ea                                     99B0         "E:\zhaoyongke\Demo\Receive\Debug\3_A24.res"
***********************************************************************************************************************************************************************************************************************************************************************************************************

***********************************************************************************************************************************************************************************************************************************************************************************************************
*                             S E C T I O N     S U M M A R Y                                                                                                                                                                                                                                             *
***********************************************************************************************************************************************************************************************************************************************************************************************************
*     Section Name                             Startting Address   Ending Address    Size                                                                                                                                                                                                                 *
***********************************************************************************************************************************************************************************************************************************************************************************************************
* "C:\Program Files\Sunplus\unSP IDE 2.0.0\startupD.obj"                                                                                                                                                                                                                                                  *
*    DEBUG                                         ----                 ----         ----                                                                                                                                                                                                                 *
*    CODE                                          ----                 ----         ----                                                                                                                                                                                                                 *
*    DATA                                          ----                 ----         ----                                                                                                                                                                                                                 *
*    TEXT                                          ----                 ----         ----                                                                                                                                                                                                                 *
*    IRAM                                          ----                 ----         ----                                                                                                                                                                                                                 *
*    ISRAM                                         ----                 ----         ----                                                                                                                                                                                                                 *
*    RAM                                           ----                 ----         ----                                                                                                                                                                                                                 *
*    SRAM                                          ----                 ----         ----                                                                                                                                                                                                                 *
*    ORAM                                          ----                 ----         ----                                                                                                                                                                                                                 *
*    OSRAM                                         ----                 ----         ----                                                                                                                                                                                                                 *
*    NB_DATA                                       ----                 ----         ----                                                                                                                                                                                                                 *
*    CTOR                                          ----                 ----         ----                                                                                                                                                                                                                 *
*    DTOR                                          ----                 ----         ----                                                                                                                                                                                                                 *
*    IM                                            ----                 ----         ----                                                                                                                                                                                                                 *
*    LINKONCE                                      ----                 ----         ----                                                                                                                                                                                                                 *
*    VTBL                                          ----                 ----         ----                                                                                                                                                                                                                 *
*    NB_MERGE                                      ----                 ----         ----                                                                                                                                                                                                                 *
*    unSP_StartUp(TEXT)                            85AC                 85C8         1D                                                                                                                                                                                                                   *
* "E:\zhaoyongke\Demo\Receive\Debug\Resource.obj"                                                                                                                                                                                                                                                         *
*    DEBUG                                         ----                 ----         ----                                                                                                                                                                                                                 *
*    CODE                                          ----                 ----         ----                                                                                                                                                                                                                 *
*    DATA                                          ----                 ----         ----                                                                                                                                                                                                                 *
*    TEXT                                          8592                 85A0         F                                                                                                                                                                                                                    *
*    IRAM                                          ----                 ----         ----                                                                                                                                                                                                                 *
*    ISRAM                                         ----                 ----         ----                                                                                                                                                                                                                 *
*    RAM                                           ----                 ----         ----                                                                                                                                                                                                                 *
*    SRAM                                          ----                 ----         ----                                                                                                                                                                                                                 *
*    ORAM                                          ----                 ----         ----                                                                                                                                                                                                                 *
*    OSRAM                                         ----                 ----         ----                                                                                                                                                                                                                 *
*    NB_DATA                                       ----                 ----         ----                                                                                                                                                                                                                 *
*    CTOR                                          ----                 ----         ----                                                                                                                                                                                                                 *
*    DTOR                                          ----                 ----         ----                                                                                                                                                                                                                 *
*    IM                                            ----                 ----         ----                                                                                                                                                                                                                 *
*    LINKONCE                                      ----                 ----         ----                                                                                                                                                                                                                 *
*    VTBL                                          ----                 ----         ----                                                                                                                                                                                                                 *
*    NB_MERGE                                      ----                 ----         ----                                                                                                                                                                                                                 *
* "E:\zhaoyongke\Demo\Receive\Debug\main.obj"                                                                                                                                                                                                                                                             *
*    DEBUG                                         ----                 ----         ----                                                                                                                                                                                                                 *
*    CODE                                          9520                 959A         7B                                                                                                                                                                                                                   *
*    DATA                                          ----                 ----         ----                                                                                                                                                                                                                 *
*    TEXT                                          ----                 ----         ----                                                                                                                                                                                                                 *
*    IRAM                                          9675  (1C4)          968D  (1DC)  19                                                                                                                                                                                                                   *
*    ISRAM                                         ----                 ----         ----                                                                                                                                                                                                                 *
*    RAM                                           ----                 ----         ----                                                                                                                                                                                                                 *
*    SRAM                                          ----                 ----         ----                                                                                                                                                                                                                 *
*    ORAM                                          ----                 ----         ----                                                                                                                                                                                                                 *
*    OSRAM                                         ----                 ----         ----                                                                                                                                                                                                                 *
*    NB_DATA                                       ----                 ----         ----                                                                                                                                                                                                                 *
*    CTOR                                          ----                 ----         ----                                                                                                                                                                                                                 *
*    DTOR                                          ----                 ----         ----                                                                                                                                                                                                                 *
*    IM                                            ----                 ----         ----                                                                                                                                                                                                                 *
*    LINKONCE                                      ----                 ----         ----                                                                                                                                                                                                                 *
*    VTBL                                          ----                 ----         ----                                                                                                                                                                                                                 *
*    NB_MERGE                                      ----                 ----         ----                                                                                                                                                                                                                 *
* "E:\zhaoyongke\Demo\Receive\Debug\nRF2401.obj"                                                                                                                                                                                                                                                          *
*    DEBUG                                         ----                 ----         ----                                                                                                                                                                                                                 *
*    CODE                                          8BA0                 8FE7         448                                                                                                                                                                                                                  *
*    DATA                                          ----                 ----         ----                                                                                                                                                                                                                 *
*    TEXT                                          8583                 8591         F                                                                                                                                                                                                                    *
*    IRAM                                          968E  (1DD)          9693  (1E2)  6                                                                                                                                                                                                                    *
*    ISRAM                                         ----                 ----         ----                                                                                                                                                                                                                 *
*    RAM                                           ----                 ----         ----                                                                                                                                                                                                                 *
*    SRAM                                          ----                 ----         ----                                                                                                                                                                                                                 *
*    ORAM                                          ----                 ----         ----                                                                                                                                                                                                                 *
*    OSRAM                                         ----                 ----         ----                                                                                                                                                                                                                 *
*    NB_DATA                                       ----                 ----         ----                                                                                                                                                                                                                 *
*    CTOR                                          ----                 ----         ----                                                                                                                                                                                                                 *
*    DTOR                                          ----                 ----         ----                                                                                                                                                                                                                 *
*    IM                                            ----                 ----         ----                                                                                                                                                                                                                 *
*    LINKONCE                                      ----                 ----         ----                                                                                                                                                                                                                 *
*    VTBL                                          ----                 ----         ----                                                                                                                                                                                                                 *
*    NB_MERGE                                      ----                 ----         ----                                                                                                                                                                                                                 *
* "E:\zhaoyongke\Demo\Receive\Debug\SACM_A1600.obj"                                                                                                                                                                                                                                                       *
*    DEBUG                                         ----                 ----         ----                                                                                                                                                                                                                 *
*    CODE                                          9402                 9493         92                                                                                                                                                                                                                   *
*    DATA                                          ----                 ----         ----                                                                                                                                                                                                                 *
*    TEXT                                          ----                 ----         ----                                                                                                                                                                                                                 *
*    IRAM                                          ----                 ----         ----                                                                                                                                                                                                                 *
*    ISRAM                                         ----                 ----         ----                                                                                                                                                                                                                 *
*    RAM                                           ----                 ----         ----                                                                                                                                                                                                                 *
*    SRAM                                          ----                 ----         ----                                                                                                                                                                                                                 *
*    ORAM                                          ----                 ----         ----                                                                                                                                                                                                                 *
*    OSRAM                                         ----                 ----         ----                                                                                                                                                                                                                 *
*    NB_DATA                                       ----                 ----         ----                                                                                                                                                                                                                 *
*    CTOR                                          ----                 ----         ----                                                                                                                                                                                                                 *
*    DTOR                                          ----                 ----         ----                                                                                                                                                                                                                 *
*    IM                                            ----                 ----         ----                                                                                                                                                                                                                 *
*    LINKONCE                                      ----                 ----         ----                                                                                                                                                                                                                 *
*    VTBL                                          ----                 ----         ----                                                                                                                                                                                                                 *
*    NB_MERGE                                      ----                 ----         ----                                                                                                                                                                                                                 *
* "E:\zhaoyongke\Demo\Receive\Debug\SACM_A1600_User_C.obj"                                                                                                                                                                                                                                                *
*    DEBUG                                         ----                 ----         ----                                                                                                                                                                                                                 *
*    CODE                                          959B                 95EB         51                                                                                                                                                                                                                   *
*    DATA                                          ----                 ----         ----                                                                                                                                                                                                                 *
*    TEXT                                          ----                 ----         ----                                                                                                                                                                                                                 *
*    IRAM                                          9694  (1E3)          9694  (1E3)  1                                                                                                                                                                                                                    *
*    ISRAM                                         ----                 ----         ----                                                                                                                                                                                                                 *
*    RAM                                           ----                 ----         ----                                                                                                                                                                                                                 *
*    SRAM                                          ----                 ----         ----                                                                                                                                                                                                                 *
*    ORAM                                          ----                 ----         ----                                                                                                                                                                                                                 *
*    OSRAM                                         ----                 ----         ----                                                                                                                                                                                                                 *
*    NB_DATA                                       ----                 ----         ----                                                                                                                                                                                                                 *
*    CTOR                                          ----                 ----         ----                                                                                                                                                                                                                 *
*    DTOR                                          ----                 ----         ----                                                                                                                                                                                                                 *
*    IM                                            ----                 ----         ----                                                                                                                                                                                                                 *
*    LINKONCE                                      ----                 ----         ----                                                                                                                                                                                                                 *
*    VTBL                                          ----                 ----         ----                                                                                                                                                                                                                 *
*    NB_MERGE                                      ----                 ----         ----                                                                                                                                                                                                                 *
* "E:\zhaoyongke\Demo\Receive\Debug\Snd.obj"                                                                                                                                                                                                                                                              *
*    DEBUG                                         ----                 ----         ----                                                                                                                                                                                                                 *
*    CODE                                          962A                 9650         27                                                                                                                                                                                                                   *
*    DATA                                          ----                 ----         ----                                                                                                                                                                                                                 *
*    TEXT                                          8573                 8582         10                                                                                                                                                                                                                   *
*    IRAM                                          ----                 ----         ----                                                                                                                                                                                                                 *
*    ISRAM                                         ----                 ----         ----                                                                                                                                                                                                                 *
*    RAM                                           ----                 ----         ----                                                                                                                                                                                                                 *
*    SRAM                                          ----                 ----         ----                                                                                                                                                                                                                 *
*    ORAM                                          ----                 ----         ----                                                                                                                                                                                                                 *
*    OSRAM                                         ----                 ----         ----                                                                                                                                                                                                                 *
*    NB_DATA                                       ----                 ----         ----                                                                                                                                                                                                                 *
*    CTOR                                          ----                 ----         ----                                                                                                                                                                                                                 *
*    DTOR                                          ----                 ----         ----                                                                                                                                                                                                                 *
*    IM                                            ----                 ----         ----                                                                                                                                                                                                                 *
*    LINKONCE                                      ----                 ----         ----                                                                                                                                                                                                                 *
*    VTBL                                          ----                 ----         ----                                                                                                                                                                                                                 *
*    NB_MERGE                                      ----                 ----         ----                                                                                                                                                                                                                 *
* "E:\zhaoyongke\Demo\Receive\Debug\led.obj"                                                                                                                                                                                                                                                              *
*    DEBUG                                         ----                 ----         ----                                                                                                                                                                                                                 *
*    CODE                                          9494                 951F         8C                                                                                                                                                                                                                   *
*    DATA                                          ----                 ----         ----                                                                                                                                                                                                                 *
*    TEXT                                          85A1                 85AB         B                                                                                                                                                                                                                    *
*    IRAM                                          ----                 ----         ----                                                                                                                                                                                                                 *
*    ISRAM                                         ----                 ----         ----                                                                                                                                                                                                                 *
*    RAM                                           ----                 ----         ----                                                                                                                                                                                                                 *
*    SRAM                                          ----                 ----         ----                                                                                                                                                                                                                 *
*    ORAM                                          ----                 ----         ----                                                                                                                                                                                                                 *
*    OSRAM                                         ----                 ----         ----                                                                                                                                                                                                                 *
*    NB_DATA                                       ----                 ----         ----                                                                                                                                                                                                                 *
*    CTOR                                          ----                 ----         ----                                                                                                                                                                                                                 *
*    DTOR                                          ----                 ----         ----                                                                                                                                                                                                                 *
*    IM                                            ----                 ----         ----                                                                                                                                                                                                                 *
*    LINKONCE                                      ----                 ----         ----                                                                                                                                                                                                                 *
*    VTBL                                          ----                 ----         ----                                                                                                                                                                                                                 *
*    NB_MERGE                                      ----                 ----         ----                                                                                                                                                                                                                 *
* "E:\zhaoyongke\Demo\Receive\Debug\key.obj"                                                                                                                                                                                                                                                              *
*    DEBUG                                         ----                 ----         ----                                                                                                                                                                                                                 *
*    CODE                                          95EC                 9629         3E                                                                                                                                                                                                                   *
*    DATA                                          ----                 ----         ----                                                                                                                                                                                                                 *
*    TEXT                                          ----                 ----         ----                                                                                                                                                                                                                 *
*    IRAM                                          ----                 ----         ----                                                                                                                                                                                                                 *
*    ISRAM                                         ----                 ----         ----                                                                                                                                                                                                                 *
*    RAM                                           ----                 ----         ----                                                                                                                                                                                                                 *
*    SRAM                                          ----                 ----         ----                                                                                                                                                                                                                 *
*    ORAM                                          ----                 ----         ----                                                                                                                                                                                                                 *
*    OSRAM                                         ----                 ----         ----                                                                                                                                                                                                                 *
*    NB_DATA                                       ----                 ----         ----                                                                                                                                                                                                                 *
*    CTOR                                          ----                 ----         ----                                                                                                                                                                                                                 *
*    DTOR                                          ----                 ----         ----                                                                                                                                                                                                                 *
*    IM                                            ----                 ----         ----                                                                                                                                                                                                                 *
*    LINKONCE                                      ----                 ----         ----                                                                                                                                                                                                                 *
*    VTBL                                          ----                 ----         ----                                                                                                                                                                                                                 *
*    NB_MERGE                                      ----                 ----         ----                                                                                                                                                                                                                 *
* "E:\zhaoyongke\Demo\Receive\Debug\1_A24.res"                                                                                                                                                                                                                                                            *
*    __sn_section_RES_1_A24(DATA)                  99B0                 9BAA         1FB                                                                                                                                                                                                                  *
* "E:\zhaoyongke\Demo\Receive\Debug\2_A24.res"                                                                                                                                                                                                                                                            *
*    __sn_section_RES_2_A24(DATA)                  9BAB                 9D8D         1E3                                                                                                                                                                                                                  *
* "E:\zhaoyongke\Demo\Receive\Debug\3_A24.res"                                                                                                                                                                                                                                                            *
*    __sn_section_RES_3_A24(DATA)                  9695                 99AF         31B                                                                                                                                                                                                                  *
* "D:\SACM41dx\A1600\API"                                                                                                                                                                                                                                                                                 *
*    DEBUG                                         ----                 ----         ----                                                                                                                                                                                                                 *
*    CODE                                          ----                 ----         ----                                                                                                                                                                                                                 *
*    DATA                                          ----                 ----         ----                                                                                                                                                                                                                 *
*    TEXT                                          8513                 8572         60                                                                                                                                                                                                                   *
*    IRAM                                          ----                 ----         ----                                                                                                                                                                                                                 *
*    ISRAM                                         ----                 ----         ----                                                                                                                                                                                                                 *
*    RAM                                           ----                 ----         ----                                                                                                                                                                                                                 *
*    SRAM                                          ----                 ----         ----                                                                                                                                                                                                                 *
*    ORAM                                          ----                 ----         ----                                                                                                                                                                                                                 *
*    OSRAM                                         ----                 ----         ----                                                                                                                                                                                                                 *
*    NB_DATA                                       ----                 ----         ----                                                                                                                                                                                                                 *
*    CTOR                                          ----                 ----         ----                                                                                                                                                                                                                 *
*    DTOR                                          ----                 ----         ----                                                                                                                                                                                                                 *
*    IM                                            ----                 ----         ----                                                                                                                                                                                                                 *
*    LINKONCE                                      ----                 ----         ----                                                                                                                                                                                                                 *
*    VTBL                                          ----                 ----         ----                                                                                                                                                                                                                 *
*    NB_MERGE                                      ----                 ----         ----                                                                                                                                                                                                                 *
*    RAM_BANK0                                     ----                 ----         ----                                                                                                                                                                                                                 *
*    IRAM_BANK0                                    ----                 ----         ----                                                                                                                                                                                                                 *
*    ORAM_BANK0                                    ----                 ----         ----                                                                                                                                                                                                                 *
*    OVERLAP_A1600_API_BLOCK(ORAM)                 1                    17           17                                                                                                                                                                                                                   *
*    SACM_A1600_ROM_BLOCK(CODE)                    91BF                 9361         1A3                                                                                                                                                                                                                  *
* "blockcopy"                                                                                                                                                                                                                                                                                             *
*    DEBUG                                         ----                 ----         ----                                                                                                                                                                                                                 *
*    CODE                                          9666                 9674         F                                                                                                                                                                                                                    *
*    DATA                                          ----                 ----         ----                                                                                                                                                                                                                 *
*    TEXT                                          ----                 ----         ----                                                                                                                                                                                                                 *
*    IRAM                                          ----                 ----         ----                                                                                                                                                                                                                 *
*    ISRAM                                         ----                 ----         ----                                                                                                                                                                                                                 *
*    RAM                                           ----                 ----         ----                                                                                                                                                                                                                 *
*    SRAM                                          ----                 ----         ----                                                                                                                                                                                                                 *
*    ORAM                                          ----                 ----         ----                                                                                                                                                                                                                 *
*    OSRAM                                         ----                 ----         ----                                                                                                                                                                                                                 *
*    NB_DATA                                       ----                 ----         ----                                                                                                                                                                                                                 *
*    CTOR                                          ----                 ----         ----                                                                                                                                                                                                                 *
*    DTOR                                          ----                 ----         ----                                                                                                                                                                                                                 *
*    IM                                            ----                 ----         ----                                                                                                                                                                                                                 *
*    LINKONCE                                      ----                 ----         ----                                                                                                                                                                                                                 *
*    VTBL                                          ----                 ----         ----                                                                                                                                                                                                                 *
* "lshiu1"                                                                                                                                                                                                                                                                                                *
*    DEBUG                                         ----                 ----         ----                                                                                                                                                                                                                 *
*    CODE                                          9651                 9665         15                                                                                                                                                                                                                   *
*    DATA                                          ----                 ----         ----                                                                                                                                                                                                                 *
*    TEXT                                          ----                 ----         ----                                                                                                                                                                                                                 *
*    IRAM                                          ----                 ----         ----                                                                                                                                                                                                                 *
*    ISRAM                                         ----                 ----         ----                                                                                                                                                                                                                 *
*    RAM                                           ----                 ----         ----                                                                                                                                                                                                                 *
*    SRAM                                          ----                 ----         ----                                                                                                                                                                                                                 *
*    ORAM                                          ----                 ----         ----                                                                                                                                                                                                                 *
*    OSRAM                                         ----                 ----         ----                                                                                                                                                                                                                 *
*    NB_DATA                                       ----                 ----         ----                                                                                                                                                                                                                 *
*    CTOR                                          ----                 ----         ----                                                                                                                                                                                                                 *
*    DTOR                                          ----                 ----         ----                                                                                                                                                                                                                 *
*    IM                                            ----                 ----         ----                                                                                                                                                                                                                 *
*    LINKONCE                                      ----                 ----         ----                                                                                                                                                                                                                 *
*    VTBL                                          ----                 ----         ----                                                                                                                                                                                                                 *
* "D:\SACM41dx\A1600\Decode"                                                                                                                                                                                                                                                                              *
*    DEBUG                                         ----                 ----         ----                                                                                                                                                                                                                 *
*    CODE                                          ----                 ----         ----                                                                                                                                                                                                                 *
*    DATA                                          ----                 ----         ----                                                                                                                                                                                                                 *
*    TEXT                                          ----                 ----         ----                                                                                                                                                                                                                 *
*    IRAM                                          ----                 ----         ----                                                                                                                                                                                                                 *
*    ISRAM                                         ----                 ----         ----                                                                                                                                                                                                                 *
*    RAM                                           ----                 ----         ----                                                                                                                                                                                                                 *
*    SRAM                                          ----                 ----         ----                                                                                                                                                                                                                 *
*    ORAM                                          ----                 ----         ----                                                                                                                                                                                                                 *
*    OSRAM                                         ----                 ----         ----                                                                                                                                                                                                                 *
*    NB_DATA                                       ----                 ----         ----                                                                                                                                                                                                                 *
*    CTOR                                          ----                 ----         ----                                                                                                                                                                                                                 *
*    DTOR                                          ----                 ----         ----                                                                                                                                                                                                                 *
*    IM                                            ----                 ----         ----                                                                                                                                                                                                                 *
*    LINKONCE                                      ----                 ----         ----                                                                                                                                                                                                                 *
*    VTBL                                          ----                 ----         ----                                                                                                                                                                                                                 *
*    NB_MERGE                                      ----                 ----         ----                                                                                                                                                                                                                 *
*    RAM_BANK0                                     ----                 ----         ----                                                                                                                                                                                                                 *
*    IRAM_BANK0                                    ----                 ----         ----                                                                                                                                                                                                                 *
*    ORAM_BANK0                                    ----                 ----         ----                                                                                                                                                                                                                 *
*    OVERLAP_A1600_RAM_BLOCK(ORAM)                 A0                   1C3          124                                                                                                                                                                                                                  *
*    SACM_A1600_DECODE_ROM_BLOCK(CODE)             9362                 9401         A0                                                                                                                                                                                                                   *
* "D:\SACM41dx\A1600\Kernel"                                                                                                                                                                                                                                                                              *
*    DEBUG                                         ----                 ----         ----                                                                                                                                                                                                                 *
*    CODE                                          85C9                 8B9F         5D7                                                                                                                                                                                                                  *
*    DATA                                          ----                 ----         ----                                                                                                                                                                                                                 *
*    TEXT                                          8009                 8488         480                                                                                                                                                                                                                  *
*    IRAM                                          ----                 ----         ----                                                                                                                                                                                                                 *
*    ISRAM                                         ----                 ----         ----                                                                                                                                                                                                                 *
*    RAM                                           ----                 ----         ----                                                                                                                                                                                                                 *
*    SRAM                                          ----                 ----         ----                                                                                                                                                                                                                 *
*    ORAM                                          ----                 ----         ----                                                                                                                                                                                                                 *
*    OSRAM                                         ----                 ----         ----                                                                                                                                                                                                                 *
*    NB_DATA                                       ----                 ----         ----                                                                                                                                                                                                                 *
*    OVERLAP_A1600_DM_BLOCKL(ORAM)                 18                   9F           88                                                                                                                                                                                                                   *
* "D:\SACM41dx\A1600\fft64"                                                                                                                                                                                                                                                                               *
*    DEBUG                                         ----                 ----         ----                                                                                                                                                                                                                 *
*    CODE                                          8FE8                 91BE         1D7                                                                                                                                                                                                                  *
*    DATA                                          ----                 ----         ----                                                                                                                                                                                                                 *
*    TEXT                                          8489                 8512         8A                                                                                                                                                                                                                   *
*    IRAM                                          ----                 ----         ----                                                                                                                                                                                                                 *
*    ISRAM                                         ----                 ----         ----                                                                                                                                                                                                                 *
*    RAM                                           ----                 ----         ----                                                                                                                                                                                                                 *
*    SRAM                                          ----                 ----         ----                                                                                                                                                                                                                 *
*    ORAM                                          ----                 ----         ----                                                                                                                                                                                                                 *
*    OSRAM                                         ----                 ----         ----                                                                                                                                                                                                                 *
*    NB_DATA                                       ----                 ----         ----                                                                                                                                                                                                                 *
* "Init Table"                                     8000                 8008         9                                                                                                                                                                                                                    *
***********************************************************************************************************************************************************************************************************************************************************************************************************

***********************************************************************************************************************************************************************************************************************************************************************************************************
*                             M E M O R Y     S U M M A R Y                                                                                                                                                                                                                                               *
***********************************************************************************************************************************************************************************************************************************************************************************************************
*     Type                          Total               Using        Remain                                                                                                                                                                                                                               *
***********************************************************************************************************************************************************************************************************************************************************************************************************
* "SRam/OSRam/ISRam"                40                   0            40                                                                                                                                                                                                                                  *
* "Ram"                             800                  1E4          61C                                                                                                                                                                                                                                 *
* "First Bank Rom"                  7C00                 1D8E         5E72                                                                                                                                                                                                                                *
* "Other Banks Rom"                 0                    0            0                                                                                                                                                                                                                                   *
***********************************************************************************************************************************************************************************************************************************************************************************************************

Linker Output Filename : E:\zhaoyongke\Demo\Receive\Debug\Receive.S37
Disk  Mapping Filename : E:\zhaoyongke\Demo\Receive\Debug\Receive.map
Symbol  Table FileName : E:\zhaoyongke\Demo\Receive\Debug\Receive.sym
Format :                 Microtek

Linker Errors :          0
Output Format :          S37
