Sunday, August 31, 14:16:12, 2008

                    Sunplus u'nSP Linker version 1.14.3 (enc)
                    -------------------------------------------

Global Symbol Name                             Global Value     Global Filename
***********************************************************************************************************************************************************************************************************************************************************************************************************
_RESET                                             A678         "D:\Program Files\Sunplus\unSP IDE 2.0.0\startupD.obj"
__sn_loop                                          A694         "D:\Program Files\Sunplus\unSP IDE 2.0.0\startupD.obj"
__sn_loop2                                         A693         "D:\Program Files\Sunplus\unSP IDE 2.0.0\startupD.obj"
__sn_init_table                                    8000         "Linker internal symbol"
__sn_sp_val                                        7FF          "Linker internal symbol"
_RES_Table                                         A607         "F:\abc\guardSD\Debug\Resource.obj"
_RES_1_48K_SA                                      A607         "F:\abc\guardSD\Debug\Resource.obj"
_RES_1_48K_EA                                      A609         "F:\abc\guardSD\Debug\Resource.obj"
_RES_12_48K_SA                                     A60B         "F:\abc\guardSD\Debug\Resource.obj"
_RES_12_48K_EA                                     A60D         "F:\abc\guardSD\Debug\Resource.obj"
_RES_15_48K_SA                                     A60F         "F:\abc\guardSD\Debug\Resource.obj"
_RES_15_48K_EA                                     A611         "F:\abc\guardSD\Debug\Resource.obj"
_RES_2_48K_SA                                      A613         "F:\abc\guardSD\Debug\Resource.obj"
_RES_2_48K_EA                                      A615         "F:\abc\guardSD\Debug\Resource.obj"
_RES_3_48K_SA                                      A617         "F:\abc\guardSD\Debug\Resource.obj"
_RES_3_48K_EA                                      A619         "F:\abc\guardSD\Debug\Resource.obj"
_RES_7_48K_SA                                      A61B         "F:\abc\guardSD\Debug\Resource.obj"
_RES_7_48K_EA                                      A61D         "F:\abc\guardSD\Debug\Resource.obj"
_RES_6_48K_SA                                      A61F         "F:\abc\guardSD\Debug\Resource.obj"
_RES_6_48K_EA                                      A621         "F:\abc\guardSD\Debug\Resource.obj"
_RES_5_48K_SA                                      A623         "F:\abc\guardSD\Debug\Resource.obj"
_RES_5_48K_EA                                      A625         "F:\abc\guardSD\Debug\Resource.obj"
_RES_18_48K_SA                                     A627         "F:\abc\guardSD\Debug\Resource.obj"
_RES_18_48K_EA                                     A629         "F:\abc\guardSD\Debug\Resource.obj"
_RES_17_48K_SA                                     A62B         "F:\abc\guardSD\Debug\Resource.obj"
_RES_17_48K_EA                                     A62D         "F:\abc\guardSD\Debug\Resource.obj"
_RES_16_48K_SA                                     A62F         "F:\abc\guardSD\Debug\Resource.obj"
_RES_16_48K_EA                                     A631         "F:\abc\guardSD\Debug\Resource.obj"
_RES_4_48K_SA                                      A633         "F:\abc\guardSD\Debug\Resource.obj"
_RES_4_48K_EA                                      A635         "F:\abc\guardSD\Debug\Resource.obj"
_RES_4COM_48K_SA                                   A637         "F:\abc\guardSD\Debug\Resource.obj"
_RES_4COM_48K_EA                                   A639         "F:\abc\guardSD\Debug\Resource.obj"
_RES_3COM_48K_SA                                   A63B         "F:\abc\guardSD\Debug\Resource.obj"
_RES_3COM_48K_EA                                   A63D         "F:\abc\guardSD\Debug\Resource.obj"
T_SACM_S480_SpeechTable                            A63F         "F:\abc\guardSD\Debug\Resource.obj"
T_SACM_A2000_SpeechTable                           A64D         "F:\abc\guardSD\Debug\Resource.obj"
_gActivated                                        4F0          "F:\abc\guardSD\Debug\main.obj"
_gTriggerRespond                                   4F1          "F:\abc\guardSD\Debug\main.obj"
_gComm2Respond                                     4F4          "F:\abc\guardSD\Debug\main.obj"
_PlayFlag                                          4F7          "F:\abc\guardSD\Debug\main.obj"
_PlayRespond                                       B572         "F:\abc\guardSD\Debug\main.obj"
_TrainWord                                         B5A6         "F:\abc\guardSD\Debug\main.obj"
_main                                              B614         "F:\abc\guardSD\Debug\main.obj"
_InitIO                                            B75D         "F:\abc\guardSD\Debug\initIO.obj"
_ShowRes                                           B755         "F:\abc\guardSD\Debug\initIO.obj"
_ClearWatchDog                                     B74F         "F:\abc\guardSD\Debug\initIO.obj"
_LED_RED_ON                                        B770         "F:\abc\guardSD\Debug\initIO.obj"
_LED_RED_OFF                                       B777         "F:\abc\guardSD\Debug\initIO.obj"
_LED_GRE_ON                                        B77E         "F:\abc\guardSD\Debug\initIO.obj"
_LED_GRE_OFF                                       B785         "F:\abc\guardSD\Debug\initIO.obj"
_FIQ                                               A64D         "F:\abc\guardSD\Debug\fiq.obj"
_BREAK                                             A66D         "F:\abc\guardSD\Debug\fiq.obj"
_IRQ0                                              A66D         "F:\abc\guardSD\Debug\fiq.obj"
_IRQ1                                              A66D         "F:\abc\guardSD\Debug\fiq.obj"
_IRQ2                                              A66D         "F:\abc\guardSD\Debug\fiq.obj"
_IRQ3                                              A66D         "F:\abc\guardSD\Debug\fiq.obj"
_IRQ4                                              A66D         "F:\abc\guardSD\Debug\fiq.obj"
_IRQ5                                              A66D         "F:\abc\guardSD\Debug\fiq.obj"
_IRQ6                                              A66D         "F:\abc\guardSD\Debug\fiq.obj"
_IRQ7                                              A66D         "F:\abc\guardSD\Debug\fiq.obj"
F_SP_RampUpDAC1                                    B4B9         "F:\abc\guardSD\Debug\hardware.obj"
F_SP_RampDnDAC1                                    B4DD         "F:\abc\guardSD\Debug\hardware.obj"
F_SP_RampUpDAC2                                    B4EF         "F:\abc\guardSD\Debug\hardware.obj"
F_SP_RampDnDAC2                                    B513         "F:\abc\guardSD\Debug\hardware.obj"
_SP_RampUpDAC1                                     B4B9         "F:\abc\guardSD\Debug\hardware.obj"
_SP_RampDnDAC1                                     B4DD         "F:\abc\guardSD\Debug\hardware.obj"
_SP_RampUpDAC2                                     B4EF         "F:\abc\guardSD\Debug\hardware.obj"
_SP_RampDnDAC2                                     B513         "F:\abc\guardSD\Debug\hardware.obj"
_SP_InitQueue                                      B393         "F:\abc\guardSD\Debug\hardware.obj"
_SP_InitQueue_A2000                                B393         "F:\abc\guardSD\Debug\hardware.obj"
_SP_InitQueue_S480                                 B393         "F:\abc\guardSD\Debug\hardware.obj"
_SP_InitQueue_S240                                 B393         "F:\abc\guardSD\Debug\hardware.obj"
_SP_InitQueue_MS01                                 B393         "F:\abc\guardSD\Debug\hardware.obj"
_SP_InitQueue_DVR                                  B393         "F:\abc\guardSD\Debug\hardware.obj"
F_SP_InitQueue                                     B393         "F:\abc\guardSD\Debug\hardware.obj"
F_SP_InitQueue_A2000                               B393         "F:\abc\guardSD\Debug\hardware.obj"
F_SP_InitQueue_S480                                B393         "F:\abc\guardSD\Debug\hardware.obj"
F_SP_InitQueue_S240                                B393         "F:\abc\guardSD\Debug\hardware.obj"
F_SP_InitQueue_MS01                                B393         "F:\abc\guardSD\Debug\hardware.obj"
F_SP_InitQueue_DVR                                 B393         "F:\abc\guardSD\Debug\hardware.obj"
F_SP_ReadQueue                                     B3A0         "F:\abc\guardSD\Debug\hardware.obj"
F_SP_ReadQueue_A2000                               B3A0         "F:\abc\guardSD\Debug\hardware.obj"
F_SP_ReadQueue_S480                                B3A0         "F:\abc\guardSD\Debug\hardware.obj"
F_SP_ReadQueue_S240                                B3A0         "F:\abc\guardSD\Debug\hardware.obj"
F_SP_ReadQueue_MS01                                B3A0         "F:\abc\guardSD\Debug\hardware.obj"
F_SP_ReadQueue_DVR                                 B3A0         "F:\abc\guardSD\Debug\hardware.obj"
F_SP_ReadQueue_NIC                                 B3B3         "F:\abc\guardSD\Debug\hardware.obj"
F_SP_ReadQueue_NIC_A2000                           B3B3         "F:\abc\guardSD\Debug\hardware.obj"
F_SP_ReadQueue_NIC_S480                            B3B3         "F:\abc\guardSD\Debug\hardware.obj"
F_SP_ReadQueue_NIC_S240                            B3B3         "F:\abc\guardSD\Debug\hardware.obj"
F_SP_ReadQueue_NIC_MS01                            B3B3         "F:\abc\guardSD\Debug\hardware.obj"
F_SP_ReadQueue_NIC_DVR                             B3B3         "F:\abc\guardSD\Debug\hardware.obj"
F_SP_WriteQueue                                    B3BC         "F:\abc\guardSD\Debug\hardware.obj"
F_SP_WriteQueue_A2000                              B3BC         "F:\abc\guardSD\Debug\hardware.obj"
F_SP_WriteQueue_S480                               B3BC         "F:\abc\guardSD\Debug\hardware.obj"
F_SP_WriteQueue_S240                               B3BC         "F:\abc\guardSD\Debug\hardware.obj"
F_SP_WriteQueue_MS01                               B3BC         "F:\abc\guardSD\Debug\hardware.obj"
F_SP_WriteQueue_DVR                                B3BC         "F:\abc\guardSD\Debug\hardware.obj"
F_SP_TestQueue                                     B3CB         "F:\abc\guardSD\Debug\hardware.obj"
F_SP_TestQueue_A2000                               B3CB         "F:\abc\guardSD\Debug\hardware.obj"
F_SP_TestQueue_S480                                B3CB         "F:\abc\guardSD\Debug\hardware.obj"
F_SP_TestQueue_S240                                B3CB         "F:\abc\guardSD\Debug\hardware.obj"
F_SP_TestQueue_MS01                                B3CB         "F:\abc\guardSD\Debug\hardware.obj"
F_SP_TestQueue_DVR                                 B3CB         "F:\abc\guardSD\Debug\hardware.obj"
_SP_Export                                         B552         "F:\abc\guardSD\Debug\hardware.obj"
_SP_Import                                         B54B         "F:\abc\guardSD\Debug\hardware.obj"
_SP_Init_IOB                                       B53B         "F:\abc\guardSD\Debug\hardware.obj"
_SP_Init_IOA                                       B52B         "F:\abc\guardSD\Debug\hardware.obj"
_SP_GetResource                                    B55C         "F:\abc\guardSD\Debug\hardware.obj"
F_SP_GetResource                                   B56A         "F:\abc\guardSD\Debug\hardware.obj"
F_SP_SACM_A2000_Init_                              B3E4         "F:\abc\guardSD\Debug\hardware.obj"
F_SP_SACM_S480_Init_                               B400         "F:\abc\guardSD\Debug\hardware.obj"
F_SP_SACM_S240_Init_                               B41B         "F:\abc\guardSD\Debug\hardware.obj"
F_SP_SACM_MS01_Init_                               B436         "F:\abc\guardSD\Debug\hardware.obj"
F_SP_PlayMode0_                                    B448         "F:\abc\guardSD\Debug\hardware.obj"
F_SP_PlayMode1_                                    B458         "F:\abc\guardSD\Debug\hardware.obj"
F_SP_PlayMode2_                                    B469         "F:\abc\guardSD\Debug\hardware.obj"
F_SP_PlayMode3_                                    B47A         "F:\abc\guardSD\Debug\hardware.obj"
F_SP_SACM_DVR_Init_                                B48B         "F:\abc\guardSD\Debug\hardware.obj"
F_SP_SACM_DVR_Rec_Init_                            B4A9         "F:\abc\guardSD\Debug\hardware.obj"
F_SP_SACM_DVR_Play_Init_                           B4B1         "F:\abc\guardSD\Debug\hardware.obj"
R_InterruptStatus                                  489          "F:\abc\guardSD\Debug\hardware.obj"
F_RampUpDAC1                                       B4B9         "F:\abc\guardSD\Debug\hardware.obj"
F_RampDnDAC1                                       B4DD         "F:\abc\guardSD\Debug\hardware.obj"
F_RampUpDAC2                                       B4EF         "F:\abc\guardSD\Debug\hardware.obj"
F_RampDnDAC2                                       B513         "F:\abc\guardSD\Debug\hardware.obj"
_STD_RampUpDAC1                                    B4B9         "F:\abc\guardSD\Debug\hardware.obj"
_STD_RampDnDAC1                                    B4DD         "F:\abc\guardSD\Debug\hardware.obj"
_STD_RampUpDAC2                                    B4EF         "F:\abc\guardSD\Debug\hardware.obj"
_STD_RampDnDAC2                                    B513         "F:\abc\guardSD\Debug\hardware.obj"
__RES_1_48K_sa                                     D51C         "F:\abc\guardSD\Debug\1_48k.res"
__RES_1_48K_ea                                     D8F3         "F:\abc\guardSD\Debug\1_48k.res"
__RES_12_48K_sa                                    E9C3         "F:\abc\guardSD\Debug\12_48k.res"
__RES_12_48K_ea                                    ECB9         "F:\abc\guardSD\Debug\12_48k.res"
__RES_15_48K_sa                                    E07D         "F:\abc\guardSD\Debug\15_48k.res"
__RES_15_48K_ea                                    E3B2         "F:\abc\guardSD\Debug\15_48k.res"
__RES_2_48K_sa                                     BC4F         "F:\abc\guardSD\Debug\2_48k.res"
__RES_2_48K_ea                                     C092         "F:\abc\guardSD\Debug\2_48k.res"
__RES_3_48K_sa                                     D121         "F:\abc\guardSD\Debug\3_48k.res"
__RES_3_48K_ea                                     D51C         "F:\abc\guardSD\Debug\3_48k.res"
__RES_7_48K_sa                                     CD02         "F:\abc\guardSD\Debug\7_48k.res"
__RES_7_48K_ea                                     D121         "F:\abc\guardSD\Debug\7_48k.res"
__RES_6_48K_sa                                     C8E3         "F:\abc\guardSD\Debug\6_48k.res"
__RES_6_48K_ea                                     CD02         "F:\abc\guardSD\Debug\6_48k.res"
__RES_5_48K_sa                                     C092         "F:\abc\guardSD\Debug\5_48k.res"
__RES_5_48K_ea                                     C4C3         "F:\abc\guardSD\Debug\5_48k.res"
__RES_18_48K_sa                                    B80C         "F:\abc\guardSD\Debug\18_48k.res"
__RES_18_48K_ea                                    BC4F         "F:\abc\guardSD\Debug\18_48k.res"
__RES_17_48K_sa                                    E3B2         "F:\abc\guardSD\Debug\17_48k.res"
__RES_17_48K_ea                                    E6CC         "F:\abc\guardSD\Debug\17_48k.res"
__RES_16_48K_sa                                    DCCA         "F:\abc\guardSD\Debug\16_48k.res"
__RES_16_48K_ea                                    E07D         "F:\abc\guardSD\Debug\16_48k.res"
__RES_4_48K_sa                                     D8F3         "F:\abc\guardSD\Debug\4_48k.res"
__RES_4_48K_ea                                     DCCA         "F:\abc\guardSD\Debug\4_48k.res"
__RES_4COM_48K_sa                                  C4C3         "F:\abc\guardSD\Debug\4com_48k.res"
__RES_4COM_48K_ea                                  C8E3         "F:\abc\guardSD\Debug\4com_48k.res"
__RES_3COM_48K_sa                                  E6CC         "F:\abc\guardSD\Debug\3Com_48k.res"
__RES_3COM_48K_ea                                  E9C3         "F:\abc\guardSD\Debug\3Com_48k.res"
***********************************************************************************************************************************************************************************************************************************************************************************************************

***********************************************************************************************************************************************************************************************************************************************************************************************************
*                             S E C T I O N     S U M M A R Y                                                                                                                                                                                                                                             *
***********************************************************************************************************************************************************************************************************************************************************************************************************
*     Section Name                             Startting Address   Ending Address    Size                                                                                                                                                                                                                 *
***********************************************************************************************************************************************************************************************************************************************************************************************************
* "D:\Program Files\Sunplus\unSP IDE 2.0.0\startupD.obj"                                                                                                                                                                                                                                                  *
*    DEBUG                                         ----                 ----         ----                                                                                                                                                                                                                 *
*    CODE                                          ----                 ----         ----                                                                                                                                                                                                                 *
*    DATA                                          ----                 ----         ----                                                                                                                                                                                                                 *
*    TEXT                                          ----                 ----         ----                                                                                                                                                                                                                 *
*    IRAM                                          ----                 ----         ----                                                                                                                                                                                                                 *
*    ISRAM                                         ----                 ----         ----                                                                                                                                                                                                                 *
*    RAM                                           ----                 ----         ----                                                                                                                                                                                                                 *
*    SRAM                                          ----                 ----         ----                                                                                                                                                                                                                 *
*    ORAM                                          ----                 ----         ----                                                                                                                                                                                                                 *
*    OSRAM                                         ----                 ----         ----                                                                                                                                                                                                                 *
*    NB_DATA                                       ----                 ----         ----                                                                                                                                                                                                                 *
*    CTOR                                          ----                 ----         ----                                                                                                                                                                                                                 *
*    DTOR                                          ----                 ----         ----                                                                                                                                                                                                                 *
*    IM                                            ----                 ----         ----                                                                                                                                                                                                                 *
*    LINKONCE                                      ----                 ----         ----                                                                                                                                                                                                                 *
*    VTBL                                          ----                 ----         ----                                                                                                                                                                                                                 *
*    NB_MERGE                                      ----                 ----         ----                                                                                                                                                                                                                 *
*    unSP_StartUp(TEXT)                            A678                 A694         1D                                                                                                                                                                                                                   *
* "F:\abc\guardSD\Debug\Resource.obj"                                                                                                                                                                                                                                                                     *
*    DEBUG                                         ----                 ----         ----                                                                                                                                                                                                                 *
*    CODE                                          ----                 ----         ----                                                                                                                                                                                                                 *
*    DATA                                          ----                 ----         ----                                                                                                                                                                                                                 *
*    TEXT                                          A607                 A64C         46                                                                                                                                                                                                                   *
*    IRAM                                          ----                 ----         ----                                                                                                                                                                                                                 *
*    ISRAM                                         ----                 ----         ----                                                                                                                                                                                                                 *
*    RAM                                           ----                 ----         ----                                                                                                                                                                                                                 *
*    SRAM                                          ----                 ----         ----                                                                                                                                                                                                                 *
*    ORAM                                          ----                 ----         ----                                                                                                                                                                                                                 *
*    OSRAM                                         ----                 ----         ----                                                                                                                                                                                                                 *
*    NB_DATA                                       ----                 ----         ----                                                                                                                                                                                                                 *
*    CTOR                                          ----                 ----         ----                                                                                                                                                                                                                 *
*    DTOR                                          ----                 ----         ----                                                                                                                                                                                                                 *
*    IM                                            ----                 ----         ----                                                                                                                                                                                                                 *
*    LINKONCE                                      ----                 ----         ----                                                                                                                                                                                                                 *
*    VTBL                                          ----                 ----         ----                                                                                                                                                                                                                 *
*    NB_MERGE                                      ----                 ----         ----                                                                                                                                                                                                                 *
* "F:\abc\guardSD\Debug\main.obj"                                                                                                                                                                                                                                                                         *
*    DEBUG                                         ----                 ----         ----                                                                                                                                                                                                                 *
*    CODE                                          B572                 B74E         1DD                                                                                                                                                                                                                  *
*    DATA                                          ----                 ----         ----                                                                                                                                                                                                                 *
*    TEXT                                          A66D                 A677         B                                                                                                                                                                                                                    *
*    IRAM                                          B7FF  (4F0)          B806  (4F7)  8                                                                                                                                                                                                                    *
*    ISRAM                                         ----                 ----         ----                                                                                                                                                                                                                 *
*    RAM                                           ----                 ----         ----                                                                                                                                                                                                                 *
*    SRAM                                          ----                 ----         ----                                                                                                                                                                                                                 *
*    ORAM                                          ----                 ----         ----                                                                                                                                                                                                                 *
*    OSRAM                                         ----                 ----         ----                                                                                                                                                                                                                 *
*    NB_DATA                                       ----                 ----         ----                                                                                                                                                                                                                 *
*    CTOR                                          ----                 ----         ----                                                                                                                                                                                                                 *
*    DTOR                                          ----                 ----         ----                                                                                                                                                                                                                 *
*    IM                                            ----                 ----         ----                                                                                                                                                                                                                 *
*    LINKONCE                                      ----                 ----         ----                                                                                                                                                                                                                 *
*    VTBL                                          ----                 ----         ----                                                                                                                                                                                                                 *
*    NB_MERGE                                      ----                 ----         ----                                                                                                                                                                                                                 *
* "F:\abc\guardSD\Debug\initIO.obj"                                                                                                                                                                                                                                                                       *
*    DEBUG                                         ----                 ----         ----                                                                                                                                                                                                                 *
*    CODE                                          B74F                 B78B         3D                                                                                                                                                                                                                   *
*    DATA                                          ----                 ----         ----                                                                                                                                                                                                                 *
*    TEXT                                          ----                 ----         ----                                                                                                                                                                                                                 *
*    IRAM                                          ----                 ----         ----                                                                                                                                                                                                                 *
*    ISRAM                                         ----                 ----         ----                                                                                                                                                                                                                 *
*    RAM                                           ----                 ----         ----                                                                                                                                                                                                                 *
*    SRAM                                          ----                 ----         ----                                                                                                                                                                                                                 *
*    ORAM                                          ----                 ----         ----                                                                                                                                                                                                                 *
*    OSRAM                                         ----                 ----         ----                                                                                                                                                                                                                 *
*    NB_DATA                                       ----                 ----         ----                                                                                                                                                                                                                 *
*    CTOR                                          ----                 ----         ----                                                                                                                                                                                                                 *
*    DTOR                                          ----                 ----         ----                                                                                                                                                                                                                 *
*    IM                                            ----                 ----         ----                                                                                                                                                                                                                 *
*    LINKONCE                                      ----                 ----         ----                                                                                                                                                                                                                 *
*    VTBL                                          ----                 ----         ----                                                                                                                                                                                                                 *
*    NB_MERGE                                      ----                 ----         ----                                                                                                                                                                                                                 *
* "F:\abc\guardSD\Debug\fiq.obj"                                                                                                                                                                                                                                                                          *
*    DEBUG                                         ----                 ----         ----                                                                                                                                                                                                                 *
*    CODE                                          ----                 ----         ----                                                                                                                                                                                                                 *
*    DATA                                          ----                 ----         ----                                                                                                                                                                                                                 *
*    TEXT                                          A64D                 A66C         20                                                                                                                                                                                                                   *
*    IRAM                                          ----                 ----         ----                                                                                                                                                                                                                 *
*    ISRAM                                         ----                 ----         ----                                                                                                                                                                                                                 *
*    RAM                                           ----                 ----         ----                                                                                                                                                                                                                 *
*    SRAM                                          ----                 ----         ----                                                                                                                                                                                                                 *
*    ORAM                                          ----                 ----         ----                                                                                                                                                                                                                 *
*    OSRAM                                         ----                 ----         ----                                                                                                                                                                                                                 *
*    NB_DATA                                       ----                 ----         ----                                                                                                                                                                                                                 *
*    CTOR                                          ----                 ----         ----                                                                                                                                                                                                                 *
*    DTOR                                          ----                 ----         ----                                                                                                                                                                                                                 *
*    IM                                            ----                 ----         ----                                                                                                                                                                                                                 *
*    LINKONCE                                      ----                 ----         ----                                                                                                                                                                                                                 *
*    VTBL                                          ----                 ----         ----                                                                                                                                                                                                                 *
*    NB_MERGE                                      ----                 ----         ----                                                                                                                                                                                                                 *
* "F:\abc\guardSD\Debug\hardware.obj"                                                                                                                                                                                                                                                                     *
*    DEBUG                                         ----                 ----         ----                                                                                                                                                                                                                 *
*    CODE                                          B393                 B571         1DF                                                                                                                                                                                                                  *
*    DATA                                          ----                 ----         ----                                                                                                                                                                                                                 *
*    TEXT                                          ----                 ----         ----                                                                                                                                                                                                                 *
*    IRAM                                          B798  (489)          B7FE  (4EF)  67                                                                                                                                                                                                                   *
*    ISRAM                                         ----                 ----         ----                                                                                                                                                                                                                 *
*    RAM                                           ----                 ----         ----                                                                                                                                                                                                                 *
*    SRAM                                          ----                 ----         ----                                                                                                                                                                                                                 *
*    ORAM                                          ----                 ----         ----                                                                                                                                                                                                                 *
*    OSRAM                                         ----                 ----         ----                                                                                                                                                                                                                 *
*    NB_DATA                                       ----                 ----         ----                                                                                                                                                                                                                 *
*    CTOR                                          ----                 ----         ----                                                                                                                                                                                                                 *
*    DTOR                                          ----                 ----         ----                                                                                                                                                                                                                 *
*    IM                                            ----                 ----         ----                                                                                                                                                                                                                 *
*    LINKONCE                                      ----                 ----         ----                                                                                                                                                                                                                 *
*    VTBL                                          ----                 ----         ----                                                                                                                                                                                                                 *
*    NB_MERGE                                      ----                 ----         ----                                                                                                                                                                                                                 *
* "F:\abc\guardSD\Debug\1_48k.res"                                                                                                                                                                                                                                                                        *
*    __sn_section_RES_1_48K(DATA)                  D51C                 D8F2         3D7                                                                                                                                                                                                                  *
* "F:\abc\guardSD\Debug\12_48k.res"                                                                                                                                                                                                                                                                       *
*    __sn_section_RES_12_48K(DATA)                 E9C3                 ECB8         2F6                                                                                                                                                                                                                  *
* "F:\abc\guardSD\Debug\15_48k.res"                                                                                                                                                                                                                                                                       *
*    __sn_section_RES_15_48K(DATA)                 E07D                 E3B1         335                                                                                                                                                                                                                  *
* "F:\abc\guardSD\Debug\2_48k.res"                                                                                                                                                                                                                                                                        *
*    __sn_section_RES_2_48K(DATA)                  BC4F                 C091         443                                                                                                                                                                                                                  *
* "F:\abc\guardSD\Debug\3_48k.res"                                                                                                                                                                                                                                                                        *
*    __sn_section_RES_3_48K(DATA)                  D121                 D51B         3FB                                                                                                                                                                                                                  *
* "F:\abc\guardSD\Debug\7_48k.res"                                                                                                                                                                                                                                                                        *
*    __sn_section_RES_7_48K(DATA)                  CD02                 D120         41F                                                                                                                                                                                                                  *
* "F:\abc\guardSD\Debug\6_48k.res"                                                                                                                                                                                                                                                                        *
*    __sn_section_RES_6_48K(DATA)                  C8E3                 CD01         41F                                                                                                                                                                                                                  *
* "F:\abc\guardSD\Debug\5_48k.res"                                                                                                                                                                                                                                                                        *
*    __sn_section_RES_5_48K(DATA)                  C092                 C4C2         431                                                                                                                                                                                                                  *
* "F:\abc\guardSD\Debug\18_48k.res"                                                                                                                                                                                                                                                                       *
*    __sn_section_RES_18_48K(DATA)                 B80C                 BC4E         443                                                                                                                                                                                                                  *
* "F:\abc\guardSD\Debug\17_48k.res"                                                                                                                                                                                                                                                                       *
*    __sn_section_RES_17_48K(DATA)                 E3B2                 E6CB         31A                                                                                                                                                                                                                  *
* "F:\abc\guardSD\Debug\16_48k.res"                                                                                                                                                                                                                                                                       *
*    __sn_section_RES_16_48K(DATA)                 DCCA                 E07C         3B3                                                                                                                                                                                                                  *
* "F:\abc\guardSD\Debug\4_48k.res"                                                                                                                                                                                                                                                                        *
*    __sn_section_RES_4_48K(DATA)                  D8F3                 DCC9         3D7                                                                                                                                                                                                                  *
* "F:\abc\guardSD\Debug\4com_48k.res"                                                                                                                                                                                                                                                                     *
*    __sn_section_RES_4COM_48K(DATA)               C4C3                 C8E2         420                                                                                                                                                                                                                  *
* "F:\abc\guardSD\Debug\3Com_48k.res"                                                                                                                                                                                                                                                                     *
*    __sn_section_RES_3COM_48K(DATA)               E6CC                 E9C2         2F7                                                                                                                                                                                                                  *
* "BSRSDCON"                                                                                                                                                                                                                                                                                              *
*    DEBUG                                         ----                 ----         ----                                                                                                                                                                                                                 *
*    CODE                                          ----                 ----         ----                                                                                                                                                                                                                 *
*    DATA                                          ----                 ----         ----                                                                                                                                                                                                                 *
*    TEXT                                          8009                 9C65         1C5D                                                                                                                                                                                                                 *
*    IRAM                                          ----                 ----         ----                                                                                                                                                                                                                 *
*    ISRAM                                         ----                 ----         ----                                                                                                                                                                                                                 *
*    RAM                                           ----                 ----         ----                                                                                                                                                                                                                 *
*    SRAM                                          ----                 ----         ----                                                                                                                                                                                                                 *
*    ORAM                                          ----                 ----         ----                                                                                                                                                                                                                 *
*    OSRAM                                         ----                 ----         ----                                                                                                                                                                                                                 *
*    NB_DATA                                       ----                 ----         ----                                                                                                                                                                                                                 *
*    BSR_IRAM_EXCLUSIVE(IRAM)                      B78C  (47D)          B797  (488)  C                                                                                                                                                                                                                    *
*    BSR_RAM_EXCLUSIVE(RAM)                        467                  47C          16                                                                                                                                                                                                                   *
*    BSR_RAM_BLOCK(RAM)                            39D                  466          CA                                                                                                                                                                                                                   *
*    OVERLAP_RAM_BLOCK(ORAM)                       1                    361          361                                                                                                                                                                                                                  *
* "D:\WORKING\UNSP\LIBMAK~1\RELEASE\S480"                                                                                                                                                                                                                                                                 *
*    DEBUG                                         ----                 ----         ----                                                                                                                                                                                                                 *
*    CODE                                          A695                 AD9D         709                                                                                                                                                                                                                  *
*    DATA                                          ----                 ----         ----                                                                                                                                                                                                                 *
*    TEXT                                          A316                 A606         2F1                                                                                                                                                                                                                  *
*    IRAM                                          B80A  (4FB)          B80B  (4FC)  2                                                                                                                                                                                                                    *
*    ISRAM                                         ----                 ----         ----                                                                                                                                                                                                                 *
*    RAM                                           ----                 ----         ----                                                                                                                                                                                                                 *
*    SRAM                                          ----                 ----         ----                                                                                                                                                                                                                 *
*    ORAM                                          ----                 ----         ----                                                                                                                                                                                                                 *
*    OSRAM                                         ----                 ----         ----                                                                                                                                                                                                                 *
*    NB_DATA                                       ----                 ----         ----                                                                                                                                                                                                                 *
*    OVERLAP_RAM_BLOCK(ORAM)                       1                    1A3          1A3                                                                                                                                                                                                                  *
* "D:\WORKING\UNSP\LIBMAK~1\RELEASE\A2000"                                                                                                                                                                                                                                                                *
*    DEBUG                                         ----                 ----         ----                                                                                                                                                                                                                 *
*    CODE                                          AD9E                 B392         5F5                                                                                                                                                                                                                  *
*    DATA                                          ----                 ----         ----                                                                                                                                                                                                                 *
*    TEXT                                          9C66                 A315         6B0                                                                                                                                                                                                                  *
*    IRAM                                          B807  (4F8)          B809  (4FA)  3                                                                                                                                                                                                                    *
*    ISRAM                                         ----                 ----         ----                                                                                                                                                                                                                 *
*    RAM                                           ----                 ----         ----                                                                                                                                                                                                                 *
*    SRAM                                          ----                 ----         ----                                                                                                                                                                                                                 *
*    ORAM                                          ----                 ----         ----                                                                                                                                                                                                                 *
*    OSRAM                                         ----                 ----         ----                                                                                                                                                                                                                 *
*    NB_DATA                                       ----                 ----         ----                                                                                                                                                                                                                 *
*    OVERLAP_SRAM_BLOCK(ORAM)                      362                  39C          3B                                                                                                                                                                                                                   *
*    OVERLAP_RAM_BLOCK(ORAM)                       1                    2B9          2B9                                                                                                                                                                                                                  *
* "Init Table"                                     8000                 8008         9                                                                                                                                                                                                                    *
***********************************************************************************************************************************************************************************************************************************************************************************************************

***********************************************************************************************************************************************************************************************************************************************************************************************************
*                             M E M O R Y     S U M M A R Y                                                                                                                                                                                                                                               *
***********************************************************************************************************************************************************************************************************************************************************************************************************
*     Type                          Total               Using        Remain                                                                                                                                                                                                                               *
***********************************************************************************************************************************************************************************************************************************************************************************************************
* "SRam/OSRam/ISRam"                40                   0            40                                                                                                                                                                                                                                  *
* "Ram"                             800                  4FD          303                                                                                                                                                                                                                                 *
* "First Bank Rom"                  7C00                 6CB9         F47                                                                                                                                                                                                                                 *
* "Other Banks Rom"                 0                    0            0                                                                                                                                                                                                                                   *
***********************************************************************************************************************************************************************************************************************************************************************************************************

Linker Output Filename : F:\abc\guardSD\Debug\guardSD.S37
Disk  Mapping Filename : F:\abc\guardSD\Debug\guardSD.map
Symbol  Table FileName : F:\abc\guardSD\Debug\guardSD.sym
Format :                 Microtek

Linker Errors :          0
Output Format :          S37
